
system.elf:     file format elf32-i386


Disassembly of section .text:

00100000 <_start>:
  100000:	fa                   	cli
  100001:	bc 00 d0 14 00       	mov    $0x14d000,%esp
  100006:	83 e4 f0             	and    $0xfffffff0,%esp
  100009:	89 e5                	mov    %esp,%ebp
  10000b:	6a 00                	push   $0x0
  10000d:	9d                   	popf
  10000e:	bf 00 50 14 00       	mov    $0x145000,%edi
  100013:	b9 c4 ce 16 00       	mov    $0x16cec4,%ecx
  100018:	81 e9 00 50 14 00    	sub    $0x145000,%ecx
  10001e:	31 c0                	xor    %eax,%eax
  100020:	f3 aa                	rep stos %al,%es:(%edi)
  100022:	53                   	push   %ebx
  100023:	e8 58 4c 00 00       	call   104c80 <kernel_main>

00100028 <_start.hang>:
  100028:	fa                   	cli
  100029:	f4                   	hlt
  10002a:	eb fc                	jmp    100028 <_start.hang>
  10002c:	66 90                	xchg   %ax,%ax
  10002e:	66 90                	xchg   %ax,%ax

00100030 <isr_common_stub>:
  100030:	60                   	pusha
  100031:	1e                   	push   %ds
  100032:	06                   	push   %es
  100033:	0f a0                	push   %fs
  100035:	0f a8                	push   %gs
  100037:	66 b8 10 00          	mov    $0x10,%ax
  10003b:	8e d8                	mov    %eax,%ds
  10003d:	8e c0                	mov    %eax,%es
  10003f:	8e e0                	mov    %eax,%fs
  100041:	8e e8                	mov    %eax,%gs
  100043:	e8 e8 2e 00 00       	call   102f30 <isr_handler>
  100048:	0f a9                	pop    %gs
  10004a:	0f a1                	pop    %fs
  10004c:	07                   	pop    %es
  10004d:	1f                   	pop    %ds
  10004e:	61                   	popa
  10004f:	83 c4 08             	add    $0x8,%esp
  100052:	cf                   	iret

00100053 <irq_common_stub>:
  100053:	60                   	pusha
  100054:	1e                   	push   %ds
  100055:	06                   	push   %es
  100056:	0f a0                	push   %fs
  100058:	0f a8                	push   %gs
  10005a:	66 b8 10 00          	mov    $0x10,%ax
  10005e:	8e d8                	mov    %eax,%ds
  100060:	8e c0                	mov    %eax,%es
  100062:	8e e0                	mov    %eax,%fs
  100064:	8e e8                	mov    %eax,%gs
  100066:	e8 c5 2e 00 00       	call   102f30 <isr_handler>
  10006b:	0f a9                	pop    %gs
  10006d:	0f a1                	pop    %fs
  10006f:	07                   	pop    %es
  100070:	1f                   	pop    %ds
  100071:	61                   	popa
  100072:	83 c4 08             	add    $0x8,%esp
  100075:	cf                   	iret

00100076 <isr0>:
  100076:	6a 00                	push   $0x0
  100078:	6a 00                	push   $0x0
  10007a:	eb b4                	jmp    100030 <isr_common_stub>

0010007c <isr1>:
  10007c:	6a 00                	push   $0x0
  10007e:	6a 01                	push   $0x1
  100080:	eb ae                	jmp    100030 <isr_common_stub>

00100082 <isr2>:
  100082:	6a 00                	push   $0x0
  100084:	6a 02                	push   $0x2
  100086:	eb a8                	jmp    100030 <isr_common_stub>

00100088 <isr3>:
  100088:	6a 00                	push   $0x0
  10008a:	6a 03                	push   $0x3
  10008c:	eb a2                	jmp    100030 <isr_common_stub>

0010008e <isr4>:
  10008e:	6a 00                	push   $0x0
  100090:	6a 04                	push   $0x4
  100092:	eb 9c                	jmp    100030 <isr_common_stub>

00100094 <isr5>:
  100094:	6a 00                	push   $0x0
  100096:	6a 05                	push   $0x5
  100098:	eb 96                	jmp    100030 <isr_common_stub>

0010009a <isr6>:
  10009a:	6a 00                	push   $0x0
  10009c:	6a 06                	push   $0x6
  10009e:	eb 90                	jmp    100030 <isr_common_stub>

001000a0 <isr7>:
  1000a0:	6a 00                	push   $0x0
  1000a2:	6a 07                	push   $0x7
  1000a4:	eb 8a                	jmp    100030 <isr_common_stub>

001000a6 <isr8>:
  1000a6:	6a 08                	push   $0x8
  1000a8:	eb 86                	jmp    100030 <isr_common_stub>

001000aa <isr9>:
  1000aa:	6a 00                	push   $0x0
  1000ac:	6a 09                	push   $0x9
  1000ae:	eb 80                	jmp    100030 <isr_common_stub>

001000b0 <isr10>:
  1000b0:	6a 0a                	push   $0xa
  1000b2:	e9 79 ff ff ff       	jmp    100030 <isr_common_stub>

001000b7 <isr11>:
  1000b7:	6a 0b                	push   $0xb
  1000b9:	e9 72 ff ff ff       	jmp    100030 <isr_common_stub>

001000be <isr12>:
  1000be:	6a 0c                	push   $0xc
  1000c0:	e9 6b ff ff ff       	jmp    100030 <isr_common_stub>

001000c5 <isr13>:
  1000c5:	6a 0d                	push   $0xd
  1000c7:	e9 64 ff ff ff       	jmp    100030 <isr_common_stub>

001000cc <isr14>:
  1000cc:	6a 0e                	push   $0xe
  1000ce:	e9 5d ff ff ff       	jmp    100030 <isr_common_stub>

001000d3 <isr15>:
  1000d3:	6a 00                	push   $0x0
  1000d5:	6a 0f                	push   $0xf
  1000d7:	e9 54 ff ff ff       	jmp    100030 <isr_common_stub>

001000dc <isr16>:
  1000dc:	6a 00                	push   $0x0
  1000de:	6a 10                	push   $0x10
  1000e0:	e9 4b ff ff ff       	jmp    100030 <isr_common_stub>

001000e5 <isr17>:
  1000e5:	6a 11                	push   $0x11
  1000e7:	e9 44 ff ff ff       	jmp    100030 <isr_common_stub>

001000ec <isr18>:
  1000ec:	6a 00                	push   $0x0
  1000ee:	6a 12                	push   $0x12
  1000f0:	e9 3b ff ff ff       	jmp    100030 <isr_common_stub>

001000f5 <isr19>:
  1000f5:	6a 00                	push   $0x0
  1000f7:	6a 13                	push   $0x13
  1000f9:	e9 32 ff ff ff       	jmp    100030 <isr_common_stub>

001000fe <isr20>:
  1000fe:	6a 00                	push   $0x0
  100100:	6a 14                	push   $0x14
  100102:	e9 29 ff ff ff       	jmp    100030 <isr_common_stub>

00100107 <isr21>:
  100107:	6a 00                	push   $0x0
  100109:	6a 15                	push   $0x15
  10010b:	e9 20 ff ff ff       	jmp    100030 <isr_common_stub>

00100110 <isr22>:
  100110:	6a 00                	push   $0x0
  100112:	6a 16                	push   $0x16
  100114:	e9 17 ff ff ff       	jmp    100030 <isr_common_stub>

00100119 <isr23>:
  100119:	6a 00                	push   $0x0
  10011b:	6a 17                	push   $0x17
  10011d:	e9 0e ff ff ff       	jmp    100030 <isr_common_stub>

00100122 <isr24>:
  100122:	6a 00                	push   $0x0
  100124:	6a 18                	push   $0x18
  100126:	e9 05 ff ff ff       	jmp    100030 <isr_common_stub>

0010012b <isr25>:
  10012b:	6a 00                	push   $0x0
  10012d:	6a 19                	push   $0x19
  10012f:	e9 fc fe ff ff       	jmp    100030 <isr_common_stub>

00100134 <isr26>:
  100134:	6a 00                	push   $0x0
  100136:	6a 1a                	push   $0x1a
  100138:	e9 f3 fe ff ff       	jmp    100030 <isr_common_stub>

0010013d <isr27>:
  10013d:	6a 00                	push   $0x0
  10013f:	6a 1b                	push   $0x1b
  100141:	e9 ea fe ff ff       	jmp    100030 <isr_common_stub>

00100146 <isr28>:
  100146:	6a 00                	push   $0x0
  100148:	6a 1c                	push   $0x1c
  10014a:	e9 e1 fe ff ff       	jmp    100030 <isr_common_stub>

0010014f <isr29>:
  10014f:	6a 00                	push   $0x0
  100151:	6a 1d                	push   $0x1d
  100153:	e9 d8 fe ff ff       	jmp    100030 <isr_common_stub>

00100158 <isr30>:
  100158:	6a 00                	push   $0x0
  10015a:	6a 1e                	push   $0x1e
  10015c:	e9 cf fe ff ff       	jmp    100030 <isr_common_stub>

00100161 <isr31>:
  100161:	6a 00                	push   $0x0
  100163:	6a 1f                	push   $0x1f
  100165:	e9 c6 fe ff ff       	jmp    100030 <isr_common_stub>

0010016a <irq0>:
  10016a:	6a 00                	push   $0x0
  10016c:	6a 20                	push   $0x20
  10016e:	e9 e0 fe ff ff       	jmp    100053 <irq_common_stub>

00100173 <irq1>:
  100173:	6a 00                	push   $0x0
  100175:	6a 21                	push   $0x21
  100177:	e9 d7 fe ff ff       	jmp    100053 <irq_common_stub>

0010017c <irq2>:
  10017c:	6a 00                	push   $0x0
  10017e:	6a 22                	push   $0x22
  100180:	e9 ce fe ff ff       	jmp    100053 <irq_common_stub>

00100185 <irq3>:
  100185:	6a 00                	push   $0x0
  100187:	6a 23                	push   $0x23
  100189:	e9 c5 fe ff ff       	jmp    100053 <irq_common_stub>

0010018e <irq4>:
  10018e:	6a 00                	push   $0x0
  100190:	6a 24                	push   $0x24
  100192:	e9 bc fe ff ff       	jmp    100053 <irq_common_stub>

00100197 <irq5>:
  100197:	6a 00                	push   $0x0
  100199:	6a 25                	push   $0x25
  10019b:	e9 b3 fe ff ff       	jmp    100053 <irq_common_stub>

001001a0 <irq6>:
  1001a0:	6a 00                	push   $0x0
  1001a2:	6a 26                	push   $0x26
  1001a4:	e9 aa fe ff ff       	jmp    100053 <irq_common_stub>

001001a9 <irq7>:
  1001a9:	6a 00                	push   $0x0
  1001ab:	6a 27                	push   $0x27
  1001ad:	e9 a1 fe ff ff       	jmp    100053 <irq_common_stub>

001001b2 <irq8>:
  1001b2:	6a 00                	push   $0x0
  1001b4:	6a 28                	push   $0x28
  1001b6:	e9 98 fe ff ff       	jmp    100053 <irq_common_stub>

001001bb <irq9>:
  1001bb:	6a 00                	push   $0x0
  1001bd:	6a 29                	push   $0x29
  1001bf:	e9 8f fe ff ff       	jmp    100053 <irq_common_stub>

001001c4 <irq10>:
  1001c4:	6a 00                	push   $0x0
  1001c6:	6a 2a                	push   $0x2a
  1001c8:	e9 86 fe ff ff       	jmp    100053 <irq_common_stub>

001001cd <irq11>:
  1001cd:	6a 00                	push   $0x0
  1001cf:	6a 2b                	push   $0x2b
  1001d1:	e9 7d fe ff ff       	jmp    100053 <irq_common_stub>

001001d6 <irq12>:
  1001d6:	6a 00                	push   $0x0
  1001d8:	6a 2c                	push   $0x2c
  1001da:	e9 74 fe ff ff       	jmp    100053 <irq_common_stub>

001001df <irq13>:
  1001df:	6a 00                	push   $0x0
  1001e1:	6a 2d                	push   $0x2d
  1001e3:	e9 6b fe ff ff       	jmp    100053 <irq_common_stub>

001001e8 <irq14>:
  1001e8:	6a 00                	push   $0x0
  1001ea:	6a 2e                	push   $0x2e
  1001ec:	e9 62 fe ff ff       	jmp    100053 <irq_common_stub>

001001f1 <irq15>:
  1001f1:	6a 00                	push   $0x0
  1001f3:	6a 2f                	push   $0x2f
  1001f5:	e9 59 fe ff ff       	jmp    100053 <irq_common_stub>

001001fa <isr128>:
  1001fa:	6a 00                	push   $0x0
  1001fc:	6a 80                	push   $0xffffff80
  1001fe:	e9 2d fe ff ff       	jmp    100030 <isr_common_stub>
  100203:	66 90                	xchg   %ax,%ax
  100205:	66 90                	xchg   %ax,%ax
  100207:	66 90                	xchg   %ax,%ax
  100209:	66 90                	xchg   %ax,%ax
  10020b:	66 90                	xchg   %ax,%ax
  10020d:	66 90                	xchg   %ax,%ax
  10020f:	90                   	nop

00100210 <vga_approx_color>:
  100210:	53                   	push   %ebx
  100211:	8b 44 24 08          	mov    0x8(%esp),%eax
  100215:	89 c1                	mov    %eax,%ecx
  100217:	0f b6 dc             	movzbl %ah,%ebx
  10021a:	0f b6 c0             	movzbl %al,%eax
  10021d:	c1 e9 10             	shr    $0x10,%ecx
  100220:	0f b6 c9             	movzbl %cl,%ecx
  100223:	81 f9 a0 00 00 00    	cmp    $0xa0,%ecx
  100229:	7e 1d                	jle    100248 <vga_approx_color+0x38>
  10022b:	81 fb 8c 00 00 00    	cmp    $0x8c,%ebx
  100231:	7e 15                	jle    100248 <vga_approx_color+0x38>
  100233:	3d 8c 00 00 00       	cmp    $0x8c,%eax
  100238:	19 d2                	sbb    %edx,%edx
  10023a:	83 e2 02             	and    $0x2,%edx
  10023d:	83 c2 0c             	add    $0xc,%edx
  100240:	89 d0                	mov    %edx,%eax
  100242:	5b                   	pop    %ebx
  100243:	c3                   	ret
  100244:	8d 74 26 00          	lea    0x0(%esi,%eiz,1),%esi
  100248:	83 f9 78             	cmp    $0x78,%ecx
  10024b:	7e 05                	jle    100252 <vga_approx_color+0x42>
  10024d:	83 fb 3c             	cmp    $0x3c,%ebx
  100250:	7f 3e                	jg     100290 <vga_approx_color+0x80>
  100252:	81 f9 96 00 00 00    	cmp    $0x96,%ecx
  100258:	77 42                	ja     10029c <vga_approx_color+0x8c>
  10025a:	ba 0a 00 00 00       	mov    $0xa,%edx
  10025f:	81 fb 96 00 00 00    	cmp    $0x96,%ebx
  100265:	77 d9                	ja     100240 <vga_approx_color+0x30>
  100267:	ba 09 00 00 00       	mov    $0x9,%edx
  10026c:	3d 96 00 00 00       	cmp    $0x96,%eax
  100271:	77 cd                	ja     100240 <vga_approx_color+0x30>
  100273:	01 d9                	add    %ebx,%ecx
  100275:	31 d2                	xor    %edx,%edx
  100277:	01 c1                	add    %eax,%ecx
  100279:	83 f9 5f             	cmp    $0x5f,%ecx
  10027c:	7e c2                	jle    100240 <vga_approx_color+0x30>
  10027e:	b8 ab aa aa aa       	mov    $0xaaaaaaab,%eax
  100283:	5b                   	pop    %ebx
  100284:	f7 e1                	mul    %ecx
  100286:	c1 ea 04             	shr    $0x4,%edx
  100289:	8d 52 20             	lea    0x20(%edx),%edx
  10028c:	89 d0                	mov    %edx,%eax
  10028e:	c3                   	ret
  10028f:	90                   	nop
  100290:	ba 06 00 00 00       	mov    $0x6,%edx
  100295:	83 f8 3b             	cmp    $0x3b,%eax
  100298:	76 a6                	jbe    100240 <vga_approx_color+0x30>
  10029a:	eb b6                	jmp    100252 <vga_approx_color+0x42>
  10029c:	ba 0c 00 00 00       	mov    $0xc,%edx
  1002a1:	eb 9d                	jmp    100240 <vga_approx_color+0x30>
  1002a3:	2e 8d b4 26 00 00 00 	lea    %cs:0x0(%esi,%eiz,1),%esi
  1002aa:	00 
  1002ab:	2e 8d 74 26 00       	lea    %cs:0x0(%esi,%eiz,1),%esi

001002b0 <vga_mute_log>:
  1002b0:	c3                   	ret
  1002b1:	2e 8d b4 26 00 00 00 	lea    %cs:0x0(%esi,%eiz,1),%esi
  1002b8:	00 
  1002b9:	8d b4 26 00 00 00 00 	lea    0x0(%esi,%eiz,1),%esi

001002c0 <write_regs>:
  1002c0:	57                   	push   %edi
  1002c1:	ba c2 03 00 00       	mov    $0x3c2,%edx
  1002c6:	56                   	push   %esi
  1002c7:	53                   	push   %ebx
  1002c8:	8b 5c 24 10          	mov    0x10(%esp),%ebx
  1002cc:	0f b6 03             	movzbl (%ebx),%eax
  1002cf:	ee                   	out    %al,(%dx)
  1002d0:	31 c9                	xor    %ecx,%ecx
  1002d2:	bf c4 03 00 00       	mov    $0x3c4,%edi
  1002d7:	be c5 03 00 00       	mov    $0x3c5,%esi
  1002dc:	8d 74 26 00          	lea    0x0(%esi,%eiz,1),%esi
  1002e0:	89 c8                	mov    %ecx,%eax
  1002e2:	89 fa                	mov    %edi,%edx
  1002e4:	ee                   	out    %al,(%dx)
  1002e5:	0f b6 44 0b 01       	movzbl 0x1(%ebx,%ecx,1),%eax
  1002ea:	89 f2                	mov    %esi,%edx
  1002ec:	ee                   	out    %al,(%dx)
  1002ed:	83 c1 01             	add    $0x1,%ecx
  1002f0:	83 f9 05             	cmp    $0x5,%ecx
  1002f3:	75 eb                	jne    1002e0 <write_regs+0x20>
  1002f5:	be d4 03 00 00       	mov    $0x3d4,%esi
  1002fa:	b8 03 00 00 00       	mov    $0x3,%eax
  1002ff:	89 f2                	mov    %esi,%edx
  100301:	ee                   	out    %al,(%dx)
  100302:	b9 d5 03 00 00       	mov    $0x3d5,%ecx
  100307:	89 ca                	mov    %ecx,%edx
  100309:	ec                   	in     (%dx),%al
  10030a:	83 c8 80             	or     $0xffffff80,%eax
  10030d:	ee                   	out    %al,(%dx)
  10030e:	b8 11 00 00 00       	mov    $0x11,%eax
  100313:	89 f2                	mov    %esi,%edx
  100315:	ee                   	out    %al,(%dx)
  100316:	89 ca                	mov    %ecx,%edx
  100318:	ec                   	in     (%dx),%al
  100319:	83 e0 7f             	and    $0x7f,%eax
  10031c:	ee                   	out    %al,(%dx)
  10031d:	80 4b 09 80          	orb    $0x80,0x9(%ebx)
  100321:	31 c9                	xor    %ecx,%ecx
  100323:	bf d4 03 00 00       	mov    $0x3d4,%edi
  100328:	be d5 03 00 00       	mov    $0x3d5,%esi
  10032d:	80 63 17 7f          	andb   $0x7f,0x17(%ebx)
  100331:	8d b4 26 00 00 00 00 	lea    0x0(%esi,%eiz,1),%esi
  100338:	89 c8                	mov    %ecx,%eax
  10033a:	89 fa                	mov    %edi,%edx
  10033c:	ee                   	out    %al,(%dx)
  10033d:	0f b6 44 0b 06       	movzbl 0x6(%ebx,%ecx,1),%eax
  100342:	89 f2                	mov    %esi,%edx
  100344:	ee                   	out    %al,(%dx)
  100345:	83 c1 01             	add    $0x1,%ecx
  100348:	83 f9 19             	cmp    $0x19,%ecx
  10034b:	75 eb                	jne    100338 <write_regs+0x78>
  10034d:	31 c9                	xor    %ecx,%ecx
  10034f:	bf ce 03 00 00       	mov    $0x3ce,%edi
  100354:	be cf 03 00 00       	mov    $0x3cf,%esi
  100359:	8d b4 26 00 00 00 00 	lea    0x0(%esi,%eiz,1),%esi
  100360:	89 c8                	mov    %ecx,%eax
  100362:	89 fa                	mov    %edi,%edx
  100364:	ee                   	out    %al,(%dx)
  100365:	0f b6 44 0b 1f       	movzbl 0x1f(%ebx,%ecx,1),%eax
  10036a:	89 f2                	mov    %esi,%edx
  10036c:	ee                   	out    %al,(%dx)
  10036d:	83 c1 01             	add    $0x1,%ecx
  100370:	83 f9 09             	cmp    $0x9,%ecx
  100373:	75 eb                	jne    100360 <write_regs+0xa0>
  100375:	31 c9                	xor    %ecx,%ecx
  100377:	bf da 03 00 00       	mov    $0x3da,%edi
  10037c:	be c0 03 00 00       	mov    $0x3c0,%esi
  100381:	8d b4 26 00 00 00 00 	lea    0x0(%esi,%eiz,1),%esi
  100388:	89 fa                	mov    %edi,%edx
  10038a:	ec                   	in     (%dx),%al
  10038b:	89 c8                	mov    %ecx,%eax
  10038d:	89 f2                	mov    %esi,%edx
  10038f:	ee                   	out    %al,(%dx)
  100390:	0f b6 44 0b 28       	movzbl 0x28(%ebx,%ecx,1),%eax
  100395:	ee                   	out    %al,(%dx)
  100396:	83 c1 01             	add    $0x1,%ecx
  100399:	83 f9 15             	cmp    $0x15,%ecx
  10039c:	75 ea                	jne    100388 <write_regs+0xc8>
  10039e:	89 fa                	mov    %edi,%edx
  1003a0:	ec                   	in     (%dx),%al
  1003a1:	b8 20 00 00 00       	mov    $0x20,%eax
  1003a6:	89 f2                	mov    %esi,%edx
  1003a8:	ee                   	out    %al,(%dx)
  1003a9:	5b                   	pop    %ebx
  1003aa:	5e                   	pop    %esi
  1003ab:	5f                   	pop    %edi
  1003ac:	c3                   	ret
  1003ad:	8d 76 00             	lea    0x0(%esi),%esi

001003b0 <set_palette>:
  1003b0:	8b 44 24 04          	mov    0x4(%esp),%eax
  1003b4:	ba c8 03 00 00       	mov    $0x3c8,%edx
  1003b9:	ee                   	out    %al,(%dx)
  1003ba:	ba c9 03 00 00       	mov    $0x3c9,%edx
  1003bf:	0f b6 44 24 08       	movzbl 0x8(%esp),%eax
  1003c4:	ee                   	out    %al,(%dx)
  1003c5:	0f b6 44 24 0c       	movzbl 0xc(%esp),%eax
  1003ca:	ee                   	out    %al,(%dx)
  1003cb:	0f b6 44 24 10       	movzbl 0x10(%esp),%eax
  1003d0:	ee                   	out    %al,(%dx)
  1003d1:	c3                   	ret
  1003d2:	2e 8d b4 26 00 00 00 	lea    %cs:0x0(%esi,%eiz,1),%esi
  1003d9:	00 
  1003da:	8d b6 00 00 00 00    	lea    0x0(%esi),%esi

001003e0 <setup_default_palette>:
  1003e0:	55                   	push   %ebp
  1003e1:	57                   	push   %edi
  1003e2:	56                   	push   %esi
  1003e3:	31 f6                	xor    %esi,%esi
  1003e5:	53                   	push   %ebx
  1003e6:	bb c8 03 00 00       	mov    $0x3c8,%ebx
  1003eb:	89 f0                	mov    %esi,%eax
  1003ed:	89 da                	mov    %ebx,%edx
  1003ef:	ee                   	out    %al,(%dx)
  1003f0:	b9 c9 03 00 00       	mov    $0x3c9,%ecx
  1003f5:	89 ca                	mov    %ecx,%edx
  1003f7:	ee                   	out    %al,(%dx)
  1003f8:	ee                   	out    %al,(%dx)
  1003f9:	ee                   	out    %al,(%dx)
  1003fa:	b8 01 00 00 00       	mov    $0x1,%eax
  1003ff:	89 da                	mov    %ebx,%edx
  100401:	ee                   	out    %al,(%dx)
  100402:	89 f0                	mov    %esi,%eax
  100404:	89 ca                	mov    %ecx,%edx
  100406:	ee                   	out    %al,(%dx)
  100407:	ee                   	out    %al,(%dx)
  100408:	bd 2a 00 00 00       	mov    $0x2a,%ebp
  10040d:	89 e8                	mov    %ebp,%eax
  10040f:	ee                   	out    %al,(%dx)
  100410:	b8 02 00 00 00       	mov    $0x2,%eax
  100415:	89 da                	mov    %ebx,%edx
  100417:	ee                   	out    %al,(%dx)
  100418:	89 f0                	mov    %esi,%eax
  10041a:	89 ca                	mov    %ecx,%edx
  10041c:	ee                   	out    %al,(%dx)
  10041d:	89 e8                	mov    %ebp,%eax
  10041f:	ee                   	out    %al,(%dx)
  100420:	89 f0                	mov    %esi,%eax
  100422:	ee                   	out    %al,(%dx)
  100423:	b8 03 00 00 00       	mov    $0x3,%eax
  100428:	89 da                	mov    %ebx,%edx
  10042a:	ee                   	out    %al,(%dx)
  10042b:	89 f0                	mov    %esi,%eax
  10042d:	89 ca                	mov    %ecx,%edx
  10042f:	ee                   	out    %al,(%dx)
  100430:	89 e8                	mov    %ebp,%eax
  100432:	ee                   	out    %al,(%dx)
  100433:	ee                   	out    %al,(%dx)
  100434:	b8 04 00 00 00       	mov    $0x4,%eax
  100439:	89 da                	mov    %ebx,%edx
  10043b:	ee                   	out    %al,(%dx)
  10043c:	89 e8                	mov    %ebp,%eax
  10043e:	89 ca                	mov    %ecx,%edx
  100440:	ee                   	out    %al,(%dx)
  100441:	89 f0                	mov    %esi,%eax
  100443:	ee                   	out    %al,(%dx)
  100444:	ee                   	out    %al,(%dx)
  100445:	b8 05 00 00 00       	mov    $0x5,%eax
  10044a:	89 da                	mov    %ebx,%edx
  10044c:	ee                   	out    %al,(%dx)
  10044d:	89 e8                	mov    %ebp,%eax
  10044f:	89 ca                	mov    %ecx,%edx
  100451:	ee                   	out    %al,(%dx)
  100452:	89 f0                	mov    %esi,%eax
  100454:	ee                   	out    %al,(%dx)
  100455:	89 e8                	mov    %ebp,%eax
  100457:	ee                   	out    %al,(%dx)
  100458:	b8 06 00 00 00       	mov    $0x6,%eax
  10045d:	89 da                	mov    %ebx,%edx
  10045f:	ee                   	out    %al,(%dx)
  100460:	89 e8                	mov    %ebp,%eax
  100462:	89 ca                	mov    %ecx,%edx
  100464:	ee                   	out    %al,(%dx)
  100465:	bf 15 00 00 00       	mov    $0x15,%edi
  10046a:	89 f8                	mov    %edi,%eax
  10046c:	ee                   	out    %al,(%dx)
  10046d:	89 f0                	mov    %esi,%eax
  10046f:	ee                   	out    %al,(%dx)
  100470:	b8 07 00 00 00       	mov    $0x7,%eax
  100475:	89 da                	mov    %ebx,%edx
  100477:	ee                   	out    %al,(%dx)
  100478:	89 e8                	mov    %ebp,%eax
  10047a:	89 ca                	mov    %ecx,%edx
  10047c:	ee                   	out    %al,(%dx)
  10047d:	ee                   	out    %al,(%dx)
  10047e:	ee                   	out    %al,(%dx)
  10047f:	b8 08 00 00 00       	mov    $0x8,%eax
  100484:	89 da                	mov    %ebx,%edx
  100486:	ee                   	out    %al,(%dx)
  100487:	89 f8                	mov    %edi,%eax
  100489:	89 ca                	mov    %ecx,%edx
  10048b:	ee                   	out    %al,(%dx)
  10048c:	ee                   	out    %al,(%dx)
  10048d:	ee                   	out    %al,(%dx)
  10048e:	b8 09 00 00 00       	mov    $0x9,%eax
  100493:	89 da                	mov    %ebx,%edx
  100495:	ee                   	out    %al,(%dx)
  100496:	89 f8                	mov    %edi,%eax
  100498:	89 ca                	mov    %ecx,%edx
  10049a:	ee                   	out    %al,(%dx)
  10049b:	ee                   	out    %al,(%dx)
  10049c:	bd 3f 00 00 00       	mov    $0x3f,%ebp
  1004a1:	89 e8                	mov    %ebp,%eax
  1004a3:	ee                   	out    %al,(%dx)
  1004a4:	b8 0a 00 00 00       	mov    $0xa,%eax
  1004a9:	89 da                	mov    %ebx,%edx
  1004ab:	ee                   	out    %al,(%dx)
  1004ac:	89 f8                	mov    %edi,%eax
  1004ae:	89 ca                	mov    %ecx,%edx
  1004b0:	ee                   	out    %al,(%dx)
  1004b1:	89 e8                	mov    %ebp,%eax
  1004b3:	ee                   	out    %al,(%dx)
  1004b4:	89 f8                	mov    %edi,%eax
  1004b6:	ee                   	out    %al,(%dx)
  1004b7:	b8 0b 00 00 00       	mov    $0xb,%eax
  1004bc:	89 da                	mov    %ebx,%edx
  1004be:	ee                   	out    %al,(%dx)
  1004bf:	89 f8                	mov    %edi,%eax
  1004c1:	89 ca                	mov    %ecx,%edx
  1004c3:	ee                   	out    %al,(%dx)
  1004c4:	89 e8                	mov    %ebp,%eax
  1004c6:	ee                   	out    %al,(%dx)
  1004c7:	ee                   	out    %al,(%dx)
  1004c8:	b8 0c 00 00 00       	mov    $0xc,%eax
  1004cd:	89 da                	mov    %ebx,%edx
  1004cf:	ee                   	out    %al,(%dx)
  1004d0:	89 e8                	mov    %ebp,%eax
  1004d2:	89 ca                	mov    %ecx,%edx
  1004d4:	ee                   	out    %al,(%dx)
  1004d5:	89 f8                	mov    %edi,%eax
  1004d7:	ee                   	out    %al,(%dx)
  1004d8:	ee                   	out    %al,(%dx)
  1004d9:	b8 0d 00 00 00       	mov    $0xd,%eax
  1004de:	89 da                	mov    %ebx,%edx
  1004e0:	ee                   	out    %al,(%dx)
  1004e1:	89 e8                	mov    %ebp,%eax
  1004e3:	89 ca                	mov    %ecx,%edx
  1004e5:	ee                   	out    %al,(%dx)
  1004e6:	89 f8                	mov    %edi,%eax
  1004e8:	ee                   	out    %al,(%dx)
  1004e9:	89 e8                	mov    %ebp,%eax
  1004eb:	ee                   	out    %al,(%dx)
  1004ec:	b8 0e 00 00 00       	mov    $0xe,%eax
  1004f1:	89 da                	mov    %ebx,%edx
  1004f3:	ee                   	out    %al,(%dx)
  1004f4:	89 e8                	mov    %ebp,%eax
  1004f6:	89 ca                	mov    %ecx,%edx
  1004f8:	ee                   	out    %al,(%dx)
  1004f9:	b8 37 00 00 00       	mov    $0x37,%eax
  1004fe:	ee                   	out    %al,(%dx)
  1004ff:	b8 0a 00 00 00       	mov    $0xa,%eax
  100504:	ee                   	out    %al,(%dx)
  100505:	bf 0f 00 00 00       	mov    $0xf,%edi
  10050a:	89 da                	mov    %ebx,%edx
  10050c:	89 f8                	mov    %edi,%eax
  10050e:	ee                   	out    %al,(%dx)
  10050f:	89 e8                	mov    %ebp,%eax
  100511:	89 ca                	mov    %ecx,%edx
  100513:	ee                   	out    %al,(%dx)
  100514:	ee                   	out    %al,(%dx)
  100515:	ee                   	out    %al,(%dx)
  100516:	b8 10 00 00 00       	mov    $0x10,%eax
  10051b:	89 da                	mov    %ebx,%edx
  10051d:	ee                   	out    %al,(%dx)
  10051e:	89 f8                	mov    %edi,%eax
  100520:	89 ca                	mov    %ecx,%edx
  100522:	ee                   	out    %al,(%dx)
  100523:	b8 1e 00 00 00       	mov    $0x1e,%eax
  100528:	ee                   	out    %al,(%dx)
  100529:	bf 20 00 00 00       	mov    $0x20,%edi
  10052e:	89 f8                	mov    %edi,%eax
  100530:	ee                   	out    %al,(%dx)
  100531:	b8 11 00 00 00       	mov    $0x11,%eax
  100536:	89 da                	mov    %ebx,%edx
  100538:	ee                   	out    %al,(%dx)
  100539:	89 f0                	mov    %esi,%eax
  10053b:	89 ca                	mov    %ecx,%edx
  10053d:	ee                   	out    %al,(%dx)
  10053e:	ee                   	out    %al,(%dx)
  10053f:	89 f8                	mov    %edi,%eax
  100541:	ee                   	out    %al,(%dx)
  100542:	b8 12 00 00 00       	mov    $0x12,%eax
  100547:	89 da                	mov    %ebx,%edx
  100549:	ee                   	out    %al,(%dx)
  10054a:	b8 3c 00 00 00       	mov    $0x3c,%eax
  10054f:	89 ca                	mov    %ecx,%edx
  100551:	ee                   	out    %al,(%dx)
  100552:	ee                   	out    %al,(%dx)
  100553:	b8 3a 00 00 00       	mov    $0x3a,%eax
  100558:	ee                   	out    %al,(%dx)
  100559:	b8 13 00 00 00       	mov    $0x13,%eax
  10055e:	89 da                	mov    %ebx,%edx
  100560:	ee                   	out    %al,(%dx)
  100561:	b8 19 00 00 00       	mov    $0x19,%eax
  100566:	89 ca                	mov    %ecx,%edx
  100568:	ee                   	out    %al,(%dx)
  100569:	b8 25 00 00 00       	mov    $0x25,%eax
  10056e:	ee                   	out    %al,(%dx)
  10056f:	b8 3b 00 00 00       	mov    $0x3b,%eax
  100574:	ee                   	out    %al,(%dx)
  100575:	b8 14 00 00 00       	mov    $0x14,%eax
  10057a:	89 da                	mov    %ebx,%edx
  10057c:	ee                   	out    %al,(%dx)
  10057d:	b8 0c 00 00 00       	mov    $0xc,%eax
  100582:	89 ca                	mov    %ecx,%edx
  100584:	ee                   	out    %al,(%dx)
  100585:	ee                   	out    %al,(%dx)
  100586:	ee                   	out    %al,(%dx)
  100587:	b8 16 00 00 00       	mov    $0x16,%eax
  10058c:	89 da                	mov    %ebx,%edx
  10058e:	ee                   	out    %al,(%dx)
  10058f:	b8 0a 00 00 00       	mov    $0xa,%eax
  100594:	89 ca                	mov    %ecx,%edx
  100596:	ee                   	out    %al,(%dx)
  100597:	ee                   	out    %al,(%dx)
  100598:	ee                   	out    %al,(%dx)
  100599:	b8 17 00 00 00       	mov    $0x17,%eax
  10059e:	89 da                	mov    %ebx,%edx
  1005a0:	ee                   	out    %al,(%dx)
  1005a1:	b8 0e 00 00 00       	mov    $0xe,%eax
  1005a6:	89 ca                	mov    %ecx,%edx
  1005a8:	ee                   	out    %al,(%dx)
  1005a9:	ee                   	out    %al,(%dx)
  1005aa:	ee                   	out    %al,(%dx)
  1005ab:	b8 18 00 00 00       	mov    $0x18,%eax
  1005b0:	89 da                	mov    %ebx,%edx
  1005b2:	ee                   	out    %al,(%dx)
  1005b3:	b8 0a 00 00 00       	mov    $0xa,%eax
  1005b8:	89 ca                	mov    %ecx,%edx
  1005ba:	ee                   	out    %al,(%dx)
  1005bb:	ee                   	out    %al,(%dx)
  1005bc:	ee                   	out    %al,(%dx)
  1005bd:	b9 19 00 00 00       	mov    $0x19,%ecx
  1005c2:	be c8 03 00 00       	mov    $0x3c8,%esi
  1005c7:	31 db                	xor    %ebx,%ebx
  1005c9:	8d b4 26 00 00 00 00 	lea    0x0(%esi,%eiz,1),%esi
  1005d0:	89 c8                	mov    %ecx,%eax
  1005d2:	89 f2                	mov    %esi,%edx
  1005d4:	ee                   	out    %al,(%dx)
  1005d5:	ba c9 03 00 00       	mov    $0x3c9,%edx
  1005da:	89 d8                	mov    %ebx,%eax
  1005dc:	ee                   	out    %al,(%dx)
  1005dd:	ee                   	out    %al,(%dx)
  1005de:	ee                   	out    %al,(%dx)
  1005df:	83 c1 01             	add    $0x1,%ecx
  1005e2:	83 f9 20             	cmp    $0x20,%ecx
  1005e5:	75 e9                	jne    1005d0 <setup_default_palette+0x1f0>
  1005e7:	31 c9                	xor    %ecx,%ecx
  1005e9:	bf c8 03 00 00       	mov    $0x3c8,%edi
  1005ee:	be c9 03 00 00       	mov    $0x3c9,%esi
  1005f3:	2e 8d 74 26 00       	lea    %cs:0x0(%esi,%eiz,1),%esi
  1005f8:	8d 1c 09             	lea    (%ecx,%ecx,1),%ebx
  1005fb:	8d 41 20             	lea    0x20(%ecx),%eax
  1005fe:	89 fa                	mov    %edi,%edx
  100600:	ee                   	out    %al,(%dx)
  100601:	89 d8                	mov    %ebx,%eax
  100603:	89 f2                	mov    %esi,%edx
  100605:	ee                   	out    %al,(%dx)
  100606:	ee                   	out    %al,(%dx)
  100607:	ee                   	out    %al,(%dx)
  100608:	83 c1 01             	add    $0x1,%ecx
  10060b:	83 f9 20             	cmp    $0x20,%ecx
  10060e:	75 e8                	jne    1005f8 <setup_default_palette+0x218>
  100610:	5b                   	pop    %ebx
  100611:	5e                   	pop    %esi
  100612:	5f                   	pop    %edi
  100613:	5d                   	pop    %ebp
  100614:	c3                   	ret
  100615:	2e 8d b4 26 00 00 00 	lea    %cs:0x0(%esi,%eiz,1),%esi
  10061c:	00 
  10061d:	8d 76 00             	lea    0x0(%esi),%esi

00100620 <init_vga_graphics>:
  100620:	68 c0 40 14 00       	push   $0x1440c0
  100625:	e8 96 fc ff ff       	call   1002c0 <write_regs>
  10062a:	e8 b1 fd ff ff       	call   1003e0 <setup_default_palette>
  10062f:	58                   	pop    %eax
  100630:	b8 00 00 0a 00       	mov    $0xa0000,%eax
  100635:	c7 05 0c d0 14 00 40 	movl   $0x140,0x14d00c
  10063c:	01 00 00 
  10063f:	c7 05 08 d0 14 00 c8 	movl   $0xc8,0x14d008
  100646:	00 00 00 
  100649:	c7 05 00 d0 14 00 08 	movl   $0x8,0x14d000
  100650:	00 00 00 
  100653:	c7 05 04 d0 14 00 40 	movl   $0x140,0x14d004
  10065a:	01 00 00 
  10065d:	c7 05 10 d0 14 00 00 	movl   $0xa0000,0x14d010
  100664:	00 0a 00 
  100667:	2e 8d b4 26 00 00 00 	lea    %cs:0x0(%esi,%eiz,1),%esi
  10066e:	00 
  10066f:	90                   	nop
  100670:	c6 00 00             	movb   $0x0,(%eax)
  100673:	83 c0 02             	add    $0x2,%eax
  100676:	c6 40 ff 00          	movb   $0x0,-0x1(%eax)
  10067a:	3d 00 fa 0a 00       	cmp    $0xafa00,%eax
  10067f:	75 ef                	jne    100670 <init_vga_graphics+0x50>
  100681:	c3                   	ret
  100682:	2e 8d b4 26 00 00 00 	lea    %cs:0x0(%esi,%eiz,1),%esi
  100689:	00 
  10068a:	8d b6 00 00 00 00    	lea    0x0(%esi),%esi

00100690 <init_vga_multiboot>:
  100690:	8b 44 24 04          	mov    0x4(%esp),%eax
  100694:	85 c0                	test   %eax,%eax
  100696:	74 35                	je     1006cd <init_vga_multiboot+0x3d>
  100698:	f7 00 00 10 00 00    	testl  $0x1000,(%eax)
  10069e:	74 2d                	je     1006cd <init_vga_multiboot+0x3d>
  1006a0:	8b 50 58             	mov    0x58(%eax),%edx
  1006a3:	89 15 10 d0 14 00    	mov    %edx,0x14d010
  1006a9:	8b 50 64             	mov    0x64(%eax),%edx
  1006ac:	89 15 0c d0 14 00    	mov    %edx,0x14d00c
  1006b2:	8b 50 68             	mov    0x68(%eax),%edx
  1006b5:	89 15 08 d0 14 00    	mov    %edx,0x14d008
  1006bb:	8b 50 60             	mov    0x60(%eax),%edx
  1006be:	0f b6 40 6c          	movzbl 0x6c(%eax),%eax
  1006c2:	89 15 04 d0 14 00    	mov    %edx,0x14d004
  1006c8:	a3 00 d0 14 00       	mov    %eax,0x14d000
  1006cd:	c3                   	ret
  1006ce:	66 90                	xchg   %ax,%ax

001006d0 <gfx_set_target>:
  1006d0:	c3                   	ret
  1006d1:	2e 8d b4 26 00 00 00 	lea    %cs:0x0(%esi,%eiz,1),%esi
  1006d8:	00 
  1006d9:	8d b4 26 00 00 00 00 	lea    0x0(%esi,%eiz,1),%esi

001006e0 <gfx_draw_char>:
  1006e0:	55                   	push   %ebp
  1006e1:	31 c0                	xor    %eax,%eax
  1006e3:	57                   	push   %edi
  1006e4:	56                   	push   %esi
  1006e5:	53                   	push   %ebx
  1006e6:	83 ec 28             	sub    $0x28,%esp
  1006e9:	0f be 5c 24 44       	movsbl 0x44(%esp),%ebx
  1006ee:	8b 6c 24 40          	mov    0x40(%esp),%ebp
  1006f2:	8b 74 24 3c          	mov    0x3c(%esp),%esi
  1006f6:	68 00 00 00 aa       	push   $0xaa000000
  1006fb:	83 eb 20             	sub    $0x20,%ebx
  1006fe:	6a 10                	push   $0x10
  100700:	83 fb 60             	cmp    $0x60,%ebx
  100703:	6a 08                	push   $0x8
  100705:	0f 43 d8             	cmovae %eax,%ebx
  100708:	55                   	push   %ebp
  100709:	56                   	push   %esi
  10070a:	c1 e3 04             	shl    $0x4,%ebx
  10070d:	29 eb                	sub    %ebp,%ebx
  10070f:	e8 0c 34 00 00       	call   103b20 <gfx_fill_rect>
  100714:	8d 45 10             	lea    0x10(%ebp),%eax
  100717:	89 5c 24 28          	mov    %ebx,0x28(%esp)
  10071b:	89 44 24 2c          	mov    %eax,0x2c(%esp)
  10071f:	83 c4 20             	add    $0x20,%esp
  100722:	8d b6 00 00 00 00    	lea    0x0(%esi),%esi
  100728:	8b 44 24 08          	mov    0x8(%esp),%eax
  10072c:	31 db                	xor    %ebx,%ebx
  10072e:	0f b6 bc 28 80 1d 14 	movzbl 0x141d80(%eax,%ebp,1),%edi
  100735:	00 
  100736:	eb 10                	jmp    100748 <gfx_draw_char+0x68>
  100738:	2e 8d b4 26 00 00 00 	lea    %cs:0x0(%esi,%eiz,1),%esi
  10073f:	00 
  100740:	83 c3 01             	add    $0x1,%ebx
  100743:	83 fb 08             	cmp    $0x8,%ebx
  100746:	74 26                	je     10076e <gfx_draw_char+0x8e>
  100748:	89 f8                	mov    %edi,%eax
  10074a:	89 d9                	mov    %ebx,%ecx
  10074c:	d3 e0                	shl    %cl,%eax
  10074e:	a8 80                	test   $0x80,%al
  100750:	74 ee                	je     100740 <gfx_draw_char+0x60>
  100752:	83 ec 04             	sub    $0x4,%esp
  100755:	8d 04 1e             	lea    (%esi,%ebx,1),%eax
  100758:	83 c3 01             	add    $0x1,%ebx
  10075b:	ff 74 24 40          	push   0x40(%esp)
  10075f:	55                   	push   %ebp
  100760:	50                   	push   %eax
  100761:	e8 ca 32 00 00       	call   103a30 <gfx_put_pixel>
  100766:	83 c4 10             	add    $0x10,%esp
  100769:	83 fb 08             	cmp    $0x8,%ebx
  10076c:	75 da                	jne    100748 <gfx_draw_char+0x68>
  10076e:	8b 44 24 0c          	mov    0xc(%esp),%eax
  100772:	83 c5 01             	add    $0x1,%ebp
  100775:	39 c5                	cmp    %eax,%ebp
  100777:	75 af                	jne    100728 <gfx_draw_char+0x48>
  100779:	83 c4 1c             	add    $0x1c,%esp
  10077c:	5b                   	pop    %ebx
  10077d:	5e                   	pop    %esi
  10077e:	5f                   	pop    %edi
  10077f:	5d                   	pop    %ebp
  100780:	c3                   	ret
  100781:	2e 8d b4 26 00 00 00 	lea    %cs:0x0(%esi,%eiz,1),%esi
  100788:	00 
  100789:	8d b4 26 00 00 00 00 	lea    0x0(%esi,%eiz,1),%esi

00100790 <vga_text_print>:
  100790:	55                   	push   %ebp
  100791:	57                   	push   %edi
  100792:	56                   	push   %esi
  100793:	53                   	push   %ebx
  100794:	8b 74 24 14          	mov    0x14(%esp),%esi
  100798:	66 0f be 06          	movsbw (%esi),%ax
  10079c:	84 c0                	test   %al,%al
  10079e:	74 72                	je     100812 <vga_text_print+0x82>
  1007a0:	8b 15 14 d0 14 00    	mov    0x14d014,%edx
  1007a6:	0f b6 2d fd 40 14 00 	movzbl 0x1440fd,%ebp
  1007ad:	31 ff                	xor    %edi,%edi
  1007af:	8b 1d 18 d0 14 00    	mov    0x14d018,%ebx
  1007b5:	c1 e5 08             	shl    $0x8,%ebp
  1007b8:	2e 8d b4 26 00 00 00 	lea    %cs:0x0(%esi,%eiz,1),%esi
  1007bf:	00 
  1007c0:	3c 0a                	cmp    $0xa,%al
  1007c2:	74 1a                	je     1007de <vga_text_print+0x4e>
  1007c4:	8d 0c 92             	lea    (%edx,%edx,4),%ecx
  1007c7:	09 e8                	or     %ebp,%eax
  1007c9:	c1 e1 04             	shl    $0x4,%ecx
  1007cc:	01 d9                	add    %ebx,%ecx
  1007ce:	83 c3 01             	add    $0x1,%ebx
  1007d1:	66 89 84 09 00 80 0b 	mov    %ax,0xb8000(%ecx,%ecx,1)
  1007d8:	00 
  1007d9:	83 fb 4f             	cmp    $0x4f,%ebx
  1007dc:	7e 0a                	jle    1007e8 <vga_text_print+0x58>
  1007de:	83 c2 01             	add    $0x1,%edx
  1007e1:	31 db                	xor    %ebx,%ebx
  1007e3:	bf 01 00 00 00       	mov    $0x1,%edi
  1007e8:	83 fa 18             	cmp    $0x18,%edx
  1007eb:	7e 07                	jle    1007f4 <vga_text_print+0x64>
  1007ed:	bf 01 00 00 00       	mov    $0x1,%edi
  1007f2:	31 d2                	xor    %edx,%edx
  1007f4:	66 0f be 46 01       	movsbw 0x1(%esi),%ax
  1007f9:	83 c6 01             	add    $0x1,%esi
  1007fc:	84 c0                	test   %al,%al
  1007fe:	75 c0                	jne    1007c0 <vga_text_print+0x30>
  100800:	89 f8                	mov    %edi,%eax
  100802:	89 1d 18 d0 14 00    	mov    %ebx,0x14d018
  100808:	84 c0                	test   %al,%al
  10080a:	74 06                	je     100812 <vga_text_print+0x82>
  10080c:	89 15 14 d0 14 00    	mov    %edx,0x14d014
  100812:	5b                   	pop    %ebx
  100813:	5e                   	pop    %esi
  100814:	5f                   	pop    %edi
  100815:	5d                   	pop    %ebp
  100816:	c3                   	ret
  100817:	2e 8d b4 26 00 00 00 	lea    %cs:0x0(%esi,%eiz,1),%esi
  10081e:	00 
  10081f:	90                   	nop

00100820 <vga_print>:
  100820:	53                   	push   %ebx
  100821:	83 ec 14             	sub    $0x14,%esp
  100824:	8b 5c 24 1c          	mov    0x1c(%esp),%ebx
  100828:	53                   	push   %ebx
  100829:	e8 52 07 00 00       	call   100f80 <s_printf>
  10082e:	a1 00 d0 14 00       	mov    0x14d000,%eax
  100833:	83 c4 10             	add    $0x10,%esp
  100836:	83 e8 18             	sub    $0x18,%eax
  100839:	83 e0 f7             	and    $0xfffffff7,%eax
  10083c:	0f 85 06 01 00 00    	jne    100948 <vga_print+0x128>
  100842:	a1 10 d0 14 00       	mov    0x14d010,%eax
  100847:	85 c0                	test   %eax,%eax
  100849:	0f 84 f1 00 00 00    	je     100940 <vga_print+0x120>
  10084f:	90                   	nop
  100850:	0f be 13             	movsbl (%ebx),%edx
  100853:	84 d2                	test   %dl,%dl
  100855:	74 5e                	je     1008b5 <vga_print+0x95>
  100857:	a1 1c d0 14 00       	mov    0x14d01c,%eax
  10085c:	83 c3 01             	add    $0x1,%ebx
  10085f:	80 fa 0a             	cmp    $0xa,%dl
  100862:	74 5c                	je     1008c0 <vga_print+0xa0>
  100864:	8b 0d 20 d0 14 00    	mov    0x14d020,%ecx
  10086a:	80 fa 08             	cmp    $0x8,%dl
  10086d:	74 71                	je     1008e0 <vga_print+0xc0>
  10086f:	80 fa 1f             	cmp    $0x1f,%dl
  100872:	0f 8f a0 00 00 00    	jg     100918 <vga_print+0xf8>
  100878:	8b 15 0c d0 14 00    	mov    0x14d00c,%edx
  10087e:	83 ea 08             	sub    $0x8,%edx
  100881:	39 ca                	cmp    %ecx,%edx
  100883:	7f 12                	jg     100897 <vga_print+0x77>
  100885:	c7 05 20 d0 14 00 00 	movl   $0x0,0x14d020
  10088c:	00 00 00 
  10088f:	83 c0 10             	add    $0x10,%eax
  100892:	a3 1c d0 14 00       	mov    %eax,0x14d01c
  100897:	8b 0d 08 d0 14 00    	mov    0x14d008,%ecx
  10089d:	8d 51 f0             	lea    -0x10(%ecx),%edx
  1008a0:	39 c2                	cmp    %eax,%edx
  1008a2:	7f ac                	jg     100850 <vga_print+0x30>
  1008a4:	c7 05 1c d0 14 00 00 	movl   $0x0,0x14d01c
  1008ab:	00 00 00 
  1008ae:	0f be 13             	movsbl (%ebx),%edx
  1008b1:	84 d2                	test   %dl,%dl
  1008b3:	75 a2                	jne    100857 <vga_print+0x37>
  1008b5:	83 c4 08             	add    $0x8,%esp
  1008b8:	5b                   	pop    %ebx
  1008b9:	e9 22 2f 00 00       	jmp    1037e0 <gfx_swap_buffers>
  1008be:	66 90                	xchg   %ax,%ax
  1008c0:	c7 05 20 d0 14 00 00 	movl   $0x0,0x14d020
  1008c7:	00 00 00 
  1008ca:	83 c0 10             	add    $0x10,%eax
  1008cd:	31 c9                	xor    %ecx,%ecx
  1008cf:	a3 1c d0 14 00       	mov    %eax,0x14d01c
  1008d4:	eb a2                	jmp    100878 <vga_print+0x58>
  1008d6:	2e 8d b4 26 00 00 00 	lea    %cs:0x0(%esi,%eiz,1),%esi
  1008dd:	00 
  1008de:	66 90                	xchg   %ax,%ax
  1008e0:	83 f9 07             	cmp    $0x7,%ecx
  1008e3:	7e 93                	jle    100878 <vga_print+0x58>
  1008e5:	83 ec 0c             	sub    $0xc,%esp
  1008e8:	83 e9 08             	sub    $0x8,%ecx
  1008eb:	68 00 00 00 ff       	push   $0xff000000
  1008f0:	6a 10                	push   $0x10
  1008f2:	6a 08                	push   $0x8
  1008f4:	50                   	push   %eax
  1008f5:	51                   	push   %ecx
  1008f6:	89 0d 20 d0 14 00    	mov    %ecx,0x14d020
  1008fc:	e8 1f 32 00 00       	call   103b20 <gfx_fill_rect>
  100901:	8b 0d 20 d0 14 00    	mov    0x14d020,%ecx
  100907:	a1 1c d0 14 00       	mov    0x14d01c,%eax
  10090c:	83 c4 20             	add    $0x20,%esp
  10090f:	e9 64 ff ff ff       	jmp    100878 <vga_print+0x58>
  100914:	8d 74 26 00          	lea    0x0(%esi,%eiz,1),%esi
  100918:	6a ff                	push   $0xffffffff
  10091a:	52                   	push   %edx
  10091b:	50                   	push   %eax
  10091c:	51                   	push   %ecx
  10091d:	e8 be fd ff ff       	call   1006e0 <gfx_draw_char>
  100922:	a1 20 d0 14 00       	mov    0x14d020,%eax
  100927:	83 c4 10             	add    $0x10,%esp
  10092a:	8d 48 08             	lea    0x8(%eax),%ecx
  10092d:	a1 1c d0 14 00       	mov    0x14d01c,%eax
  100932:	89 0d 20 d0 14 00    	mov    %ecx,0x14d020
  100938:	e9 3b ff ff ff       	jmp    100878 <vga_print+0x58>
  10093d:	8d 76 00             	lea    0x0(%esi),%esi
  100940:	83 c4 08             	add    $0x8,%esp
  100943:	5b                   	pop    %ebx
  100944:	c3                   	ret
  100945:	8d 76 00             	lea    0x0(%esi),%esi
  100948:	89 5c 24 10          	mov    %ebx,0x10(%esp)
  10094c:	83 c4 08             	add    $0x8,%esp
  10094f:	5b                   	pop    %ebx
  100950:	e9 3b fe ff ff       	jmp    100790 <vga_text_print>
  100955:	2e 8d b4 26 00 00 00 	lea    %cs:0x0(%esi,%eiz,1),%esi
  10095c:	00 
  10095d:	8d 76 00             	lea    0x0(%esi),%esi

00100960 <vga_clear>:
  100960:	a1 10 d0 14 00       	mov    0x14d010,%eax
  100965:	85 c0                	test   %eax,%eax
  100967:	74 0d                	je     100976 <vga_clear+0x16>
  100969:	a1 00 d0 14 00       	mov    0x14d000,%eax
  10096e:	83 e8 18             	sub    $0x18,%eax
  100971:	83 e0 f7             	and    $0xfffffff7,%eax
  100974:	74 40                	je     1009b6 <vga_clear+0x56>
  100976:	0f b6 15 fd 40 14 00 	movzbl 0x1440fd,%edx
  10097d:	b8 00 80 0b 00       	mov    $0xb8000,%eax
  100982:	c1 e2 08             	shl    $0x8,%edx
  100985:	83 ca 20             	or     $0x20,%edx
  100988:	2e 8d b4 26 00 00 00 	lea    %cs:0x0(%esi,%eiz,1),%esi
  10098f:	00 
  100990:	66 89 10             	mov    %dx,(%eax)
  100993:	83 c0 04             	add    $0x4,%eax
  100996:	66 89 50 fe          	mov    %dx,-0x2(%eax)
  10099a:	3d a0 8f 0b 00       	cmp    $0xb8fa0,%eax
  10099f:	75 ef                	jne    100990 <vga_clear+0x30>
  1009a1:	c7 05 18 d0 14 00 00 	movl   $0x0,0x14d018
  1009a8:	00 00 00 
  1009ab:	c7 05 14 d0 14 00 00 	movl   $0x0,0x14d014
  1009b2:	00 00 00 
  1009b5:	c3                   	ret
  1009b6:	83 ec 18             	sub    $0x18,%esp
  1009b9:	68 00 00 00 ff       	push   $0xff000000
  1009be:	ff 35 08 d0 14 00    	push   0x14d008
  1009c4:	ff 35 0c d0 14 00    	push   0x14d00c
  1009ca:	6a 00                	push   $0x0
  1009cc:	6a 00                	push   $0x0
  1009ce:	e8 4d 31 00 00       	call   103b20 <gfx_fill_rect>
  1009d3:	c7 05 20 d0 14 00 00 	movl   $0x0,0x14d020
  1009da:	00 00 00 
  1009dd:	c7 05 1c d0 14 00 00 	movl   $0x0,0x14d01c
  1009e4:	00 00 00 
  1009e7:	83 c4 2c             	add    $0x2c,%esp
  1009ea:	e9 f1 2d 00 00       	jmp    1037e0 <gfx_swap_buffers>
  1009ef:	90                   	nop

001009f0 <vga_wait_vsync>:
  1009f0:	ba da 03 00 00       	mov    $0x3da,%edx
  1009f5:	8d 76 00             	lea    0x0(%esi),%esi
  1009f8:	ec                   	in     (%dx),%al
  1009f9:	a8 08                	test   $0x8,%al
  1009fb:	75 fb                	jne    1009f8 <vga_wait_vsync+0x8>
  1009fd:	ba da 03 00 00       	mov    $0x3da,%edx
  100a02:	8d b6 00 00 00 00    	lea    0x0(%esi),%esi
  100a08:	ec                   	in     (%dx),%al
  100a09:	a8 08                	test   $0x8,%al
  100a0b:	74 fb                	je     100a08 <vga_wait_vsync+0x18>
  100a0d:	c3                   	ret
  100a0e:	66 90                	xchg   %ax,%ax

00100a10 <vga_set_color>:
  100a10:	0f b6 44 24 04       	movzbl 0x4(%esp),%eax
  100a15:	0f b6 54 24 08       	movzbl 0x8(%esp),%edx
  100a1a:	83 e0 0f             	and    $0xf,%eax
  100a1d:	c1 e2 04             	shl    $0x4,%edx
  100a20:	09 d0                	or     %edx,%eax
  100a22:	a2 fd 40 14 00       	mov    %al,0x1440fd
  100a27:	c3                   	ret
  100a28:	2e 8d b4 26 00 00 00 	lea    %cs:0x0(%esi,%eiz,1),%esi
  100a2f:	00 

00100a30 <vga_print_char>:
  100a30:	83 ec 28             	sub    $0x28,%esp
  100a33:	8b 44 24 2c          	mov    0x2c(%esp),%eax
  100a37:	c6 44 24 1b 00       	movb   $0x0,0x1b(%esp)
  100a3c:	88 44 24 1a          	mov    %al,0x1a(%esp)
  100a40:	8d 44 24 1a          	lea    0x1a(%esp),%eax
  100a44:	50                   	push   %eax
  100a45:	e8 d6 fd ff ff       	call   100820 <vga_print>
  100a4a:	83 c4 2c             	add    $0x2c,%esp
  100a4d:	c3                   	ret
  100a4e:	66 90                	xchg   %ax,%ax

00100a50 <vga_print_int>:
  100a50:	53                   	push   %ebx
  100a51:	83 ec 20             	sub    $0x20,%esp
  100a54:	8d 5c 24 0c          	lea    0xc(%esp),%ebx
  100a58:	53                   	push   %ebx
  100a59:	ff 74 24 2c          	push   0x2c(%esp)
  100a5d:	e8 ce 50 00 00       	call   105b30 <int_to_str>
  100a62:	89 1c 24             	mov    %ebx,(%esp)
  100a65:	e8 b6 fd ff ff       	call   100820 <vga_print>
  100a6a:	83 c4 28             	add    $0x28,%esp
  100a6d:	5b                   	pop    %ebx
  100a6e:	c3                   	ret
  100a6f:	90                   	nop

00100a70 <ata_delay>:
  100a70:	ba f6 03 00 00       	mov    $0x3f6,%edx
  100a75:	ec                   	in     (%dx),%al
  100a76:	ec                   	in     (%dx),%al
  100a77:	ec                   	in     (%dx),%al
  100a78:	ec                   	in     (%dx),%al
  100a79:	c3                   	ret
  100a7a:	8d b6 00 00 00 00    	lea    0x0(%esi),%esi

00100a80 <ata_wait_bsy>:
  100a80:	ba f7 01 00 00       	mov    $0x1f7,%edx
  100a85:	ec                   	in     (%dx),%al
  100a86:	84 c0                	test   %al,%al
  100a88:	79 35                	jns    100abf <ata_wait_bsy+0x3f>
  100a8a:	56                   	push   %esi
  100a8b:	b9 f6 03 00 00       	mov    $0x3f6,%ecx
  100a90:	be f7 01 00 00       	mov    $0x1f7,%esi
  100a95:	53                   	push   %ebx
  100a96:	bb a0 86 01 00       	mov    $0x186a0,%ebx
  100a9b:	2e 8d 74 26 00       	lea    %cs:0x0(%esi,%eiz,1),%esi
  100aa0:	89 ca                	mov    %ecx,%edx
  100aa2:	ec                   	in     (%dx),%al
  100aa3:	ec                   	in     (%dx),%al
  100aa4:	ec                   	in     (%dx),%al
  100aa5:	ec                   	in     (%dx),%al
  100aa6:	83 eb 01             	sub    $0x1,%ebx
  100aa9:	74 0f                	je     100aba <ata_wait_bsy+0x3a>
  100aab:	89 f2                	mov    %esi,%edx
  100aad:	ec                   	in     (%dx),%al
  100aae:	84 c0                	test   %al,%al
  100ab0:	78 ee                	js     100aa0 <ata_wait_bsy+0x20>
  100ab2:	b8 01 00 00 00       	mov    $0x1,%eax
  100ab7:	5b                   	pop    %ebx
  100ab8:	5e                   	pop    %esi
  100ab9:	c3                   	ret
  100aba:	31 c0                	xor    %eax,%eax
  100abc:	5b                   	pop    %ebx
  100abd:	5e                   	pop    %esi
  100abe:	c3                   	ret
  100abf:	b8 01 00 00 00       	mov    $0x1,%eax
  100ac4:	c3                   	ret
  100ac5:	2e 8d b4 26 00 00 00 	lea    %cs:0x0(%esi,%eiz,1),%esi
  100acc:	00 
  100acd:	8d 76 00             	lea    0x0(%esi),%esi

00100ad0 <ata_wait_drq>:
  100ad0:	ba f7 01 00 00       	mov    $0x1f7,%edx
  100ad5:	ec                   	in     (%dx),%al
  100ad6:	a8 08                	test   $0x8,%al
  100ad8:	75 45                	jne    100b1f <ata_wait_drq+0x4f>
  100ada:	ec                   	in     (%dx),%al
  100adb:	a8 01                	test   $0x1,%al
  100add:	75 3d                	jne    100b1c <ata_wait_drq+0x4c>
  100adf:	56                   	push   %esi
  100ae0:	b9 f6 03 00 00       	mov    $0x3f6,%ecx
  100ae5:	be f7 01 00 00       	mov    $0x1f7,%esi
  100aea:	53                   	push   %ebx
  100aeb:	bb a0 86 01 00       	mov    $0x186a0,%ebx
  100af0:	eb 0b                	jmp    100afd <ata_wait_drq+0x2d>
  100af2:	8d b6 00 00 00 00    	lea    0x0(%esi),%esi
  100af8:	ec                   	in     (%dx),%al
  100af9:	a8 01                	test   $0x1,%al
  100afb:	75 1a                	jne    100b17 <ata_wait_drq+0x47>
  100afd:	89 ca                	mov    %ecx,%edx
  100aff:	ec                   	in     (%dx),%al
  100b00:	ec                   	in     (%dx),%al
  100b01:	ec                   	in     (%dx),%al
  100b02:	ec                   	in     (%dx),%al
  100b03:	83 eb 01             	sub    $0x1,%ebx
  100b06:	74 0f                	je     100b17 <ata_wait_drq+0x47>
  100b08:	89 f2                	mov    %esi,%edx
  100b0a:	ec                   	in     (%dx),%al
  100b0b:	a8 08                	test   $0x8,%al
  100b0d:	74 e9                	je     100af8 <ata_wait_drq+0x28>
  100b0f:	b8 01 00 00 00       	mov    $0x1,%eax
  100b14:	5b                   	pop    %ebx
  100b15:	5e                   	pop    %esi
  100b16:	c3                   	ret
  100b17:	31 c0                	xor    %eax,%eax
  100b19:	5b                   	pop    %ebx
  100b1a:	5e                   	pop    %esi
  100b1b:	c3                   	ret
  100b1c:	31 c0                	xor    %eax,%eax
  100b1e:	c3                   	ret
  100b1f:	b8 01 00 00 00       	mov    $0x1,%eax
  100b24:	c3                   	ret
  100b25:	2e 8d b4 26 00 00 00 	lea    %cs:0x0(%esi,%eiz,1),%esi
  100b2c:	00 
  100b2d:	8d 76 00             	lea    0x0(%esi),%esi

00100b30 <ata_read_sector>:
  100b30:	56                   	push   %esi
  100b31:	b8 01 00 00 00       	mov    $0x1,%eax
  100b36:	53                   	push   %ebx
  100b37:	83 7c 24 0c 01       	cmpl   $0x1,0xc(%esp)
  100b3c:	7e 0a                	jle    100b48 <ata_read_sector+0x18>
  100b3e:	5b                   	pop    %ebx
  100b3f:	5e                   	pop    %esi
  100b40:	c3                   	ret
  100b41:	8d b4 26 00 00 00 00 	lea    0x0(%esi,%eiz,1),%esi
  100b48:	ba f7 01 00 00       	mov    $0x1f7,%edx
  100b4d:	ec                   	in     (%dx),%al
  100b4e:	84 c0                	test   %al,%al
  100b50:	79 2c                	jns    100b7e <ata_read_sector+0x4e>
  100b52:	bb a0 86 01 00       	mov    $0x186a0,%ebx
  100b57:	b9 f6 03 00 00       	mov    $0x3f6,%ecx
  100b5c:	be f7 01 00 00       	mov    $0x1f7,%esi
  100b61:	8d b4 26 00 00 00 00 	lea    0x0(%esi,%eiz,1),%esi
  100b68:	89 ca                	mov    %ecx,%edx
  100b6a:	ec                   	in     (%dx),%al
  100b6b:	ec                   	in     (%dx),%al
  100b6c:	ec                   	in     (%dx),%al
  100b6d:	ec                   	in     (%dx),%al
  100b6e:	83 eb 01             	sub    $0x1,%ebx
  100b71:	0f 84 ba 00 00 00    	je     100c31 <ata_read_sector+0x101>
  100b77:	89 f2                	mov    %esi,%edx
  100b79:	ec                   	in     (%dx),%al
  100b7a:	84 c0                	test   %al,%al
  100b7c:	78 ea                	js     100b68 <ata_read_sector+0x38>
  100b7e:	0f b6 44 24 0c       	movzbl 0xc(%esp),%eax
  100b83:	8b 54 24 10          	mov    0x10(%esp),%edx
  100b87:	c1 e0 04             	shl    $0x4,%eax
  100b8a:	c1 ea 18             	shr    $0x18,%edx
  100b8d:	83 e2 0f             	and    $0xf,%edx
  100b90:	83 e0 10             	and    $0x10,%eax
  100b93:	09 d0                	or     %edx,%eax
  100b95:	ba f6 01 00 00       	mov    $0x1f6,%edx
  100b9a:	83 c8 e0             	or     $0xffffffe0,%eax
  100b9d:	ee                   	out    %al,(%dx)
  100b9e:	b8 01 00 00 00       	mov    $0x1,%eax
  100ba3:	ba f2 01 00 00       	mov    $0x1f2,%edx
  100ba8:	ee                   	out    %al,(%dx)
  100ba9:	ba f3 01 00 00       	mov    $0x1f3,%edx
  100bae:	0f b6 44 24 10       	movzbl 0x10(%esp),%eax
  100bb3:	ee                   	out    %al,(%dx)
  100bb4:	8b 44 24 10          	mov    0x10(%esp),%eax
  100bb8:	ba f4 01 00 00       	mov    $0x1f4,%edx
  100bbd:	c1 e8 08             	shr    $0x8,%eax
  100bc0:	ee                   	out    %al,(%dx)
  100bc1:	8b 44 24 10          	mov    0x10(%esp),%eax
  100bc5:	ba f5 01 00 00       	mov    $0x1f5,%edx
  100bca:	c1 e8 10             	shr    $0x10,%eax
  100bcd:	ee                   	out    %al,(%dx)
  100bce:	ba f7 01 00 00       	mov    $0x1f7,%edx
  100bd3:	b8 20 00 00 00       	mov    $0x20,%eax
  100bd8:	ee                   	out    %al,(%dx)
  100bd9:	ec                   	in     (%dx),%al
  100bda:	a8 08                	test   $0x8,%al
  100bdc:	75 31                	jne    100c0f <ata_read_sector+0xdf>
  100bde:	ec                   	in     (%dx),%al
  100bdf:	a8 01                	test   $0x1,%al
  100be1:	75 4e                	jne    100c31 <ata_read_sector+0x101>
  100be3:	bb a0 86 01 00       	mov    $0x186a0,%ebx
  100be8:	b9 f6 03 00 00       	mov    $0x3f6,%ecx
  100bed:	be f7 01 00 00       	mov    $0x1f7,%esi
  100bf2:	eb 09                	jmp    100bfd <ata_read_sector+0xcd>
  100bf4:	8d 74 26 00          	lea    0x0(%esi,%eiz,1),%esi
  100bf8:	ec                   	in     (%dx),%al
  100bf9:	a8 01                	test   $0x1,%al
  100bfb:	75 34                	jne    100c31 <ata_read_sector+0x101>
  100bfd:	89 ca                	mov    %ecx,%edx
  100bff:	ec                   	in     (%dx),%al
  100c00:	ec                   	in     (%dx),%al
  100c01:	ec                   	in     (%dx),%al
  100c02:	ec                   	in     (%dx),%al
  100c03:	83 eb 01             	sub    $0x1,%ebx
  100c06:	74 29                	je     100c31 <ata_read_sector+0x101>
  100c08:	89 f2                	mov    %esi,%edx
  100c0a:	ec                   	in     (%dx),%al
  100c0b:	a8 08                	test   $0x8,%al
  100c0d:	74 e9                	je     100bf8 <ata_read_sector+0xc8>
  100c0f:	8b 4c 24 14          	mov    0x14(%esp),%ecx
  100c13:	ba f0 01 00 00       	mov    $0x1f0,%edx
  100c18:	8d 99 00 02 00 00    	lea    0x200(%ecx),%ebx
  100c1e:	66 90                	xchg   %ax,%ax
  100c20:	66 ed                	in     (%dx),%ax
  100c22:	66 89 01             	mov    %ax,(%ecx)
  100c25:	83 c1 02             	add    $0x2,%ecx
  100c28:	39 d9                	cmp    %ebx,%ecx
  100c2a:	75 f4                	jne    100c20 <ata_read_sector+0xf0>
  100c2c:	31 c0                	xor    %eax,%eax
  100c2e:	5b                   	pop    %ebx
  100c2f:	5e                   	pop    %esi
  100c30:	c3                   	ret
  100c31:	b8 01 00 00 00       	mov    $0x1,%eax
  100c36:	5b                   	pop    %ebx
  100c37:	5e                   	pop    %esi
  100c38:	c3                   	ret
  100c39:	8d b4 26 00 00 00 00 	lea    0x0(%esi,%eiz,1),%esi

00100c40 <ata_write_sector>:
  100c40:	56                   	push   %esi
  100c41:	b8 01 00 00 00       	mov    $0x1,%eax
  100c46:	53                   	push   %ebx
  100c47:	83 7c 24 0c 01       	cmpl   $0x1,0xc(%esp)
  100c4c:	7e 0a                	jle    100c58 <ata_write_sector+0x18>
  100c4e:	5b                   	pop    %ebx
  100c4f:	5e                   	pop    %esi
  100c50:	c3                   	ret
  100c51:	8d b4 26 00 00 00 00 	lea    0x0(%esi,%eiz,1),%esi
  100c58:	ba f7 01 00 00       	mov    $0x1f7,%edx
  100c5d:	ec                   	in     (%dx),%al
  100c5e:	84 c0                	test   %al,%al
  100c60:	79 2c                	jns    100c8e <ata_write_sector+0x4e>
  100c62:	bb a0 86 01 00       	mov    $0x186a0,%ebx
  100c67:	b9 f6 03 00 00       	mov    $0x3f6,%ecx
  100c6c:	be f7 01 00 00       	mov    $0x1f7,%esi
  100c71:	8d b4 26 00 00 00 00 	lea    0x0(%esi,%eiz,1),%esi
  100c78:	89 ca                	mov    %ecx,%edx
  100c7a:	ec                   	in     (%dx),%al
  100c7b:	ec                   	in     (%dx),%al
  100c7c:	ec                   	in     (%dx),%al
  100c7d:	ec                   	in     (%dx),%al
  100c7e:	83 eb 01             	sub    $0x1,%ebx
  100c81:	0f 84 00 01 00 00    	je     100d87 <ata_write_sector+0x147>
  100c87:	89 f2                	mov    %esi,%edx
  100c89:	ec                   	in     (%dx),%al
  100c8a:	84 c0                	test   %al,%al
  100c8c:	78 ea                	js     100c78 <ata_write_sector+0x38>
  100c8e:	0f b6 44 24 0c       	movzbl 0xc(%esp),%eax
  100c93:	8b 54 24 10          	mov    0x10(%esp),%edx
  100c97:	c1 e0 04             	shl    $0x4,%eax
  100c9a:	c1 ea 18             	shr    $0x18,%edx
  100c9d:	83 e2 0f             	and    $0xf,%edx
  100ca0:	83 e0 10             	and    $0x10,%eax
  100ca3:	09 d0                	or     %edx,%eax
  100ca5:	ba f6 01 00 00       	mov    $0x1f6,%edx
  100caa:	83 c8 e0             	or     $0xffffffe0,%eax
  100cad:	ee                   	out    %al,(%dx)
  100cae:	b8 01 00 00 00       	mov    $0x1,%eax
  100cb3:	ba f2 01 00 00       	mov    $0x1f2,%edx
  100cb8:	ee                   	out    %al,(%dx)
  100cb9:	ba f3 01 00 00       	mov    $0x1f3,%edx
  100cbe:	0f b6 44 24 10       	movzbl 0x10(%esp),%eax
  100cc3:	ee                   	out    %al,(%dx)
  100cc4:	8b 44 24 10          	mov    0x10(%esp),%eax
  100cc8:	ba f4 01 00 00       	mov    $0x1f4,%edx
  100ccd:	c1 e8 08             	shr    $0x8,%eax
  100cd0:	ee                   	out    %al,(%dx)
  100cd1:	8b 44 24 10          	mov    0x10(%esp),%eax
  100cd5:	ba f5 01 00 00       	mov    $0x1f5,%edx
  100cda:	c1 e8 10             	shr    $0x10,%eax
  100cdd:	ee                   	out    %al,(%dx)
  100cde:	ba f7 01 00 00       	mov    $0x1f7,%edx
  100ce3:	b8 30 00 00 00       	mov    $0x30,%eax
  100ce8:	ee                   	out    %al,(%dx)
  100ce9:	ec                   	in     (%dx),%al
  100cea:	a8 08                	test   $0x8,%al
  100cec:	75 39                	jne    100d27 <ata_write_sector+0xe7>
  100cee:	ec                   	in     (%dx),%al
  100cef:	a8 01                	test   $0x1,%al
  100cf1:	0f 85 90 00 00 00    	jne    100d87 <ata_write_sector+0x147>
  100cf7:	bb a0 86 01 00       	mov    $0x186a0,%ebx
  100cfc:	b9 f6 03 00 00       	mov    $0x3f6,%ecx
  100d01:	be f7 01 00 00       	mov    $0x1f7,%esi
  100d06:	eb 0d                	jmp    100d15 <ata_write_sector+0xd5>
  100d08:	2e 8d b4 26 00 00 00 	lea    %cs:0x0(%esi,%eiz,1),%esi
  100d0f:	00 
  100d10:	ec                   	in     (%dx),%al
  100d11:	a8 01                	test   $0x1,%al
  100d13:	75 72                	jne    100d87 <ata_write_sector+0x147>
  100d15:	89 ca                	mov    %ecx,%edx
  100d17:	ec                   	in     (%dx),%al
  100d18:	ec                   	in     (%dx),%al
  100d19:	ec                   	in     (%dx),%al
  100d1a:	ec                   	in     (%dx),%al
  100d1b:	83 eb 01             	sub    $0x1,%ebx
  100d1e:	74 67                	je     100d87 <ata_write_sector+0x147>
  100d20:	89 f2                	mov    %esi,%edx
  100d22:	ec                   	in     (%dx),%al
  100d23:	a8 08                	test   $0x8,%al
  100d25:	74 e9                	je     100d10 <ata_write_sector+0xd0>
  100d27:	8b 4c 24 14          	mov    0x14(%esp),%ecx
  100d2b:	ba f0 01 00 00       	mov    $0x1f0,%edx
  100d30:	8d 99 00 02 00 00    	lea    0x200(%ecx),%ebx
  100d36:	2e 8d b4 26 00 00 00 	lea    %cs:0x0(%esi,%eiz,1),%esi
  100d3d:	00 
  100d3e:	66 90                	xchg   %ax,%ax
  100d40:	0f b7 01             	movzwl (%ecx),%eax
  100d43:	66 ef                	out    %ax,(%dx)
  100d45:	83 c1 02             	add    $0x2,%ecx
  100d48:	39 d9                	cmp    %ebx,%ecx
  100d4a:	75 f4                	jne    100d40 <ata_write_sector+0x100>
  100d4c:	ba f7 01 00 00       	mov    $0x1f7,%edx
  100d51:	b8 e7 ff ff ff       	mov    $0xffffffe7,%eax
  100d56:	ee                   	out    %al,(%dx)
  100d57:	ec                   	in     (%dx),%al
  100d58:	84 c0                	test   %al,%al
  100d5a:	79 26                	jns    100d82 <ata_write_sector+0x142>
  100d5c:	bb a0 86 01 00       	mov    $0x186a0,%ebx
  100d61:	b9 f6 03 00 00       	mov    $0x3f6,%ecx
  100d66:	be f7 01 00 00       	mov    $0x1f7,%esi
  100d6b:	2e 8d 74 26 00       	lea    %cs:0x0(%esi,%eiz,1),%esi
  100d70:	89 ca                	mov    %ecx,%edx
  100d72:	ec                   	in     (%dx),%al
  100d73:	ec                   	in     (%dx),%al
  100d74:	ec                   	in     (%dx),%al
  100d75:	ec                   	in     (%dx),%al
  100d76:	83 eb 01             	sub    $0x1,%ebx
  100d79:	74 0c                	je     100d87 <ata_write_sector+0x147>
  100d7b:	89 f2                	mov    %esi,%edx
  100d7d:	ec                   	in     (%dx),%al
  100d7e:	84 c0                	test   %al,%al
  100d80:	78 ee                	js     100d70 <ata_write_sector+0x130>
  100d82:	31 c0                	xor    %eax,%eax
  100d84:	5b                   	pop    %ebx
  100d85:	5e                   	pop    %esi
  100d86:	c3                   	ret
  100d87:	b8 01 00 00 00       	mov    $0x1,%eax
  100d8c:	5b                   	pop    %ebx
  100d8d:	5e                   	pop    %esi
  100d8e:	c3                   	ret
  100d8f:	90                   	nop

00100d90 <ata_swap_string>:
  100d90:	53                   	push   %ebx
  100d91:	8b 54 24 0c          	mov    0xc(%esp),%edx
  100d95:	85 d2                	test   %edx,%edx
  100d97:	7e 29                	jle    100dc2 <ata_swap_string+0x32>
  100d99:	8b 44 24 08          	mov    0x8(%esp),%eax
  100d9d:	83 ea 01             	sub    $0x1,%edx
  100da0:	0f b7 0d 2c 84 11 00 	movzwl 0x11842c,%ecx
  100da7:	83 e2 fe             	and    $0xfffffffe,%edx
  100daa:	8d 5c 10 02          	lea    0x2(%eax,%edx,1),%ebx
  100dae:	66 90                	xchg   %ax,%ax
  100db0:	89 ca                	mov    %ecx,%edx
  100db2:	8a 50 01             	mov    0x1(%eax),%dl
  100db5:	8a 30                	mov    (%eax),%dh
  100db7:	83 c0 02             	add    $0x2,%eax
  100dba:	66 89 50 fe          	mov    %dx,-0x2(%eax)
  100dbe:	39 d8                	cmp    %ebx,%eax
  100dc0:	75 ee                	jne    100db0 <ata_swap_string+0x20>
  100dc2:	5b                   	pop    %ebx
  100dc3:	c3                   	ret
  100dc4:	2e 8d b4 26 00 00 00 	lea    %cs:0x0(%esi,%eiz,1),%esi
  100dcb:	00 
  100dcc:	8d 74 26 00          	lea    0x0(%esi,%eiz,1),%esi

00100dd0 <ata_identify_device>:
  100dd0:	56                   	push   %esi
  100dd1:	ba f6 01 00 00       	mov    $0x1f6,%edx
  100dd6:	53                   	push   %ebx
  100dd7:	81 ec 00 02 00 00    	sub    $0x200,%esp
  100ddd:	8b 9c 24 0c 02 00 00 	mov    0x20c(%esp),%ebx
  100de4:	6b c3 34             	imul   $0x34,%ebx,%eax
  100de7:	83 fb 01             	cmp    $0x1,%ebx
  100dea:	c7 80 70 d0 14 00 00 	movl   $0x0,0x14d070(%eax)
  100df1:	00 00 00 
  100df4:	19 c0                	sbb    %eax,%eax
  100df6:	83 e0 f0             	and    $0xfffffff0,%eax
  100df9:	83 e8 50             	sub    $0x50,%eax
  100dfc:	ee                   	out    %al,(%dx)
  100dfd:	31 c0                	xor    %eax,%eax
  100dff:	ba f2 01 00 00       	mov    $0x1f2,%edx
  100e04:	ee                   	out    %al,(%dx)
  100e05:	ba f3 01 00 00       	mov    $0x1f3,%edx
  100e0a:	ee                   	out    %al,(%dx)
  100e0b:	ba f4 01 00 00       	mov    $0x1f4,%edx
  100e10:	ee                   	out    %al,(%dx)
  100e11:	ba f5 01 00 00       	mov    $0x1f5,%edx
  100e16:	ee                   	out    %al,(%dx)
  100e17:	ba f7 01 00 00       	mov    $0x1f7,%edx
  100e1c:	b8 ec ff ff ff       	mov    $0xffffffec,%eax
  100e21:	ee                   	out    %al,(%dx)
  100e22:	ec                   	in     (%dx),%al
  100e23:	84 c0                	test   %al,%al
  100e25:	0f 84 cb 00 00 00    	je     100ef6 <ata_identify_device+0x126>
  100e2b:	b9 11 27 00 00       	mov    $0x2711,%ecx
  100e30:	83 e9 01             	sub    $0x1,%ecx
  100e33:	74 05                	je     100e3a <ata_identify_device+0x6a>
  100e35:	ec                   	in     (%dx),%al
  100e36:	84 c0                	test   %al,%al
  100e38:	78 f6                	js     100e30 <ata_identify_device+0x60>
  100e3a:	ba f4 01 00 00       	mov    $0x1f4,%edx
  100e3f:	ec                   	in     (%dx),%al
  100e40:	84 c0                	test   %al,%al
  100e42:	0f 85 ae 00 00 00    	jne    100ef6 <ata_identify_device+0x126>
  100e48:	ba f5 01 00 00       	mov    $0x1f5,%edx
  100e4d:	ec                   	in     (%dx),%al
  100e4e:	84 c0                	test   %al,%al
  100e50:	0f 85 a0 00 00 00    	jne    100ef6 <ata_identify_device+0x126>
  100e56:	b9 a1 86 01 00       	mov    $0x186a1,%ecx
  100e5b:	ba f7 01 00 00       	mov    $0x1f7,%edx
  100e60:	eb 0e                	jmp    100e70 <ata_identify_device+0xa0>
  100e62:	8d b6 00 00 00 00    	lea    0x0(%esi),%esi
  100e68:	a8 01                	test   $0x1,%al
  100e6a:	0f 85 86 00 00 00    	jne    100ef6 <ata_identify_device+0x126>
  100e70:	83 e9 01             	sub    $0x1,%ecx
  100e73:	74 05                	je     100e7a <ata_identify_device+0xaa>
  100e75:	ec                   	in     (%dx),%al
  100e76:	a8 08                	test   $0x8,%al
  100e78:	74 ee                	je     100e68 <ata_identify_device+0x98>
  100e7a:	89 e1                	mov    %esp,%ecx
  100e7c:	8d b4 24 00 02 00 00 	lea    0x200(%esp),%esi
  100e83:	ba f0 01 00 00       	mov    $0x1f0,%edx
  100e88:	2e 8d b4 26 00 00 00 	lea    %cs:0x0(%esi,%eiz,1),%esi
  100e8f:	00 
  100e90:	66 ed                	in     (%dx),%ax
  100e92:	66 89 01             	mov    %ax,(%ecx)
  100e95:	83 c1 02             	add    $0x2,%ecx
  100e98:	39 f1                	cmp    %esi,%ecx
  100e9a:	75 f4                	jne    100e90 <ata_identify_device+0xc0>
  100e9c:	6b d3 34             	imul   $0x34,%ebx,%edx
  100e9f:	8b 44 24 78          	mov    0x78(%esp),%eax
  100ea3:	c7 82 70 d0 14 00 01 	movl   $0x1,0x14d070(%edx)
  100eaa:	00 00 00 
  100ead:	89 82 40 d0 14 00    	mov    %eax,0x14d040(%edx)
  100eb3:	81 c2 44 d0 14 00    	add    $0x14d044,%edx
  100eb9:	31 c0                	xor    %eax,%eax
  100ebb:	2e 8d 74 26 00       	lea    %cs:0x0(%esi,%eiz,1),%esi
  100ec0:	0f b7 4c 44 36       	movzwl 0x36(%esp,%eax,2),%ecx
  100ec5:	88 2c 42             	mov    %ch,(%edx,%eax,2)
  100ec8:	88 4c 42 01          	mov    %cl,0x1(%edx,%eax,2)
  100ecc:	83 c0 01             	add    $0x1,%eax
  100ecf:	83 f8 14             	cmp    $0x14,%eax
  100ed2:	75 ec                	jne    100ec0 <ata_identify_device+0xf0>
  100ed4:	0f b7 1d 2c 84 11 00 	movzwl 0x11842c,%ebx
  100edb:	89 d0                	mov    %edx,%eax
  100edd:	8d 72 28             	lea    0x28(%edx),%esi
  100ee0:	89 d9                	mov    %ebx,%ecx
  100ee2:	8a 48 01             	mov    0x1(%eax),%cl
  100ee5:	8a 28                	mov    (%eax),%ch
  100ee7:	83 c0 02             	add    $0x2,%eax
  100eea:	66 89 48 fe          	mov    %cx,-0x2(%eax)
  100eee:	39 c6                	cmp    %eax,%esi
  100ef0:	75 ee                	jne    100ee0 <ata_identify_device+0x110>
  100ef2:	c6 42 28 00          	movb   $0x0,0x28(%edx)
  100ef6:	81 c4 00 02 00 00    	add    $0x200,%esp
  100efc:	5b                   	pop    %ebx
  100efd:	5e                   	pop    %esi
  100efe:	c3                   	ret
  100eff:	90                   	nop

00100f00 <init_serial>:
  100f00:	57                   	push   %edi
  100f01:	bf f9 03 00 00       	mov    $0x3f9,%edi
  100f06:	56                   	push   %esi
  100f07:	31 f6                	xor    %esi,%esi
  100f09:	89 fa                	mov    %edi,%edx
  100f0b:	53                   	push   %ebx
  100f0c:	89 f0                	mov    %esi,%eax
  100f0e:	ee                   	out    %al,(%dx)
  100f0f:	bb fb 03 00 00       	mov    $0x3fb,%ebx
  100f14:	b8 80 ff ff ff       	mov    $0xffffff80,%eax
  100f19:	89 da                	mov    %ebx,%edx
  100f1b:	ee                   	out    %al,(%dx)
  100f1c:	b9 03 00 00 00       	mov    $0x3,%ecx
  100f21:	ba f8 03 00 00       	mov    $0x3f8,%edx
  100f26:	89 c8                	mov    %ecx,%eax
  100f28:	ee                   	out    %al,(%dx)
  100f29:	89 f0                	mov    %esi,%eax
  100f2b:	89 fa                	mov    %edi,%edx
  100f2d:	ee                   	out    %al,(%dx)
  100f2e:	89 c8                	mov    %ecx,%eax
  100f30:	89 da                	mov    %ebx,%edx
  100f32:	ee                   	out    %al,(%dx)
  100f33:	b8 c7 ff ff ff       	mov    $0xffffffc7,%eax
  100f38:	ba fa 03 00 00       	mov    $0x3fa,%edx
  100f3d:	ee                   	out    %al,(%dx)
  100f3e:	b8 0b 00 00 00       	mov    $0xb,%eax
  100f43:	ba fc 03 00 00       	mov    $0x3fc,%edx
  100f48:	ee                   	out    %al,(%dx)
  100f49:	31 c0                	xor    %eax,%eax
  100f4b:	5b                   	pop    %ebx
  100f4c:	5e                   	pop    %esi
  100f4d:	5f                   	pop    %edi
  100f4e:	c3                   	ret
  100f4f:	90                   	nop

00100f50 <is_transmit_empty>:
  100f50:	ba fd 03 00 00       	mov    $0x3fd,%edx
  100f55:	ec                   	in     (%dx),%al
  100f56:	83 e0 20             	and    $0x20,%eax
  100f59:	c3                   	ret
  100f5a:	8d b6 00 00 00 00    	lea    0x0(%esi),%esi

00100f60 <write_serial>:
  100f60:	0f b6 4c 24 04       	movzbl 0x4(%esp),%ecx
  100f65:	ba fd 03 00 00       	mov    $0x3fd,%edx
  100f6a:	8d b6 00 00 00 00    	lea    0x0(%esi),%esi
  100f70:	ec                   	in     (%dx),%al
  100f71:	a8 20                	test   $0x20,%al
  100f73:	74 fb                	je     100f70 <write_serial+0x10>
  100f75:	ba f8 03 00 00       	mov    $0x3f8,%edx
  100f7a:	89 c8                	mov    %ecx,%eax
  100f7c:	ee                   	out    %al,(%dx)
  100f7d:	c3                   	ret
  100f7e:	66 90                	xchg   %ax,%ax

00100f80 <s_printf>:
  100f80:	57                   	push   %edi
  100f81:	56                   	push   %esi
  100f82:	53                   	push   %ebx
  100f83:	8b 5c 24 10          	mov    0x10(%esp),%ebx
  100f87:	0f b6 33             	movzbl (%ebx),%esi
  100f8a:	89 f0                	mov    %esi,%eax
  100f8c:	84 c0                	test   %al,%al
  100f8e:	74 28                	je     100fb8 <s_printf+0x38>
  100f90:	83 c3 01             	add    $0x1,%ebx
  100f93:	b9 fd 03 00 00       	mov    $0x3fd,%ecx
  100f98:	bf f8 03 00 00       	mov    $0x3f8,%edi
  100f9d:	8d 76 00             	lea    0x0(%esi),%esi
  100fa0:	89 ca                	mov    %ecx,%edx
  100fa2:	ec                   	in     (%dx),%al
  100fa3:	a8 20                	test   $0x20,%al
  100fa5:	74 f9                	je     100fa0 <s_printf+0x20>
  100fa7:	89 f0                	mov    %esi,%eax
  100fa9:	89 fa                	mov    %edi,%edx
  100fab:	ee                   	out    %al,(%dx)
  100fac:	0f b6 33             	movzbl (%ebx),%esi
  100faf:	83 c3 01             	add    $0x1,%ebx
  100fb2:	89 f0                	mov    %esi,%eax
  100fb4:	84 c0                	test   %al,%al
  100fb6:	75 e8                	jne    100fa0 <s_printf+0x20>
  100fb8:	5b                   	pop    %ebx
  100fb9:	5e                   	pop    %esi
  100fba:	5f                   	pop    %edi
  100fbb:	c3                   	ret
  100fbc:	8d 74 26 00          	lea    0x0(%esi,%eiz,1),%esi

00100fc0 <serial_write_string>:
  100fc0:	57                   	push   %edi
  100fc1:	56                   	push   %esi
  100fc2:	53                   	push   %ebx
  100fc3:	8b 5c 24 10          	mov    0x10(%esp),%ebx
  100fc7:	0f b6 33             	movzbl (%ebx),%esi
  100fca:	89 f0                	mov    %esi,%eax
  100fcc:	84 c0                	test   %al,%al
  100fce:	74 28                	je     100ff8 <serial_write_string+0x38>
  100fd0:	83 c3 01             	add    $0x1,%ebx
  100fd3:	b9 fd 03 00 00       	mov    $0x3fd,%ecx
  100fd8:	bf f8 03 00 00       	mov    $0x3f8,%edi
  100fdd:	8d 76 00             	lea    0x0(%esi),%esi
  100fe0:	89 ca                	mov    %ecx,%edx
  100fe2:	ec                   	in     (%dx),%al
  100fe3:	a8 20                	test   $0x20,%al
  100fe5:	74 f9                	je     100fe0 <serial_write_string+0x20>
  100fe7:	89 f0                	mov    %esi,%eax
  100fe9:	89 fa                	mov    %edi,%edx
  100feb:	ee                   	out    %al,(%dx)
  100fec:	0f b6 33             	movzbl (%ebx),%esi
  100fef:	83 c3 01             	add    $0x1,%ebx
  100ff2:	89 f0                	mov    %esi,%eax
  100ff4:	84 c0                	test   %al,%al
  100ff6:	75 e8                	jne    100fe0 <serial_write_string+0x20>
  100ff8:	5b                   	pop    %ebx
  100ff9:	5e                   	pop    %esi
  100ffa:	5f                   	pop    %edi
  100ffb:	c3                   	ret
  100ffc:	66 90                	xchg   %ax,%ax
  100ffe:	66 90                	xchg   %ax,%ax

00101000 <init_keyboard>:
  101000:	e4 60                	in     $0x60,%al
  101002:	c7 05 d4 d0 14 00 00 	movl   $0x0,0x14d0d4
  101009:	00 00 00 
  10100c:	c7 05 d0 d0 14 00 00 	movl   $0x0,0x14d0d0
  101013:	00 00 00 
  101016:	c7 05 cc d0 14 00 00 	movl   $0x0,0x14d0cc
  10101d:	00 00 00 
  101020:	c7 05 c8 d0 14 00 00 	movl   $0x0,0x14d0c8
  101027:	00 00 00 
  10102a:	c7 05 c4 d0 14 00 00 	movl   $0x0,0x14d0c4
  101031:	00 00 00 
  101034:	c7 05 c0 d0 14 00 00 	movl   $0x0,0x14d0c0
  10103b:	00 00 00 
  10103e:	c7 05 e0 d4 14 00 00 	movl   $0x0,0x14d4e0
  101045:	00 00 00 
  101048:	c3                   	ret
  101049:	8d b4 26 00 00 00 00 	lea    0x0(%esi,%eiz,1),%esi

00101050 <kbd_flush>:
  101050:	c7 05 d4 d0 14 00 00 	movl   $0x0,0x14d0d4
  101057:	00 00 00 
  10105a:	c7 05 d0 d0 14 00 00 	movl   $0x0,0x14d0d0
  101061:	00 00 00 
  101064:	c3                   	ret
  101065:	2e 8d b4 26 00 00 00 	lea    %cs:0x0(%esi,%eiz,1),%esi
  10106c:	00 
  10106d:	8d 76 00             	lea    0x0(%esi),%esi

00101070 <sys_get_key>:
  101070:	a1 d0 d0 14 00       	mov    0x14d0d0,%eax
  101075:	31 c9                	xor    %ecx,%ecx
  101077:	3b 05 d4 d0 14 00    	cmp    0x14d0d4,%eax
  10107d:	74 1a                	je     101099 <sys_get_key+0x29>
  10107f:	8b 0c 85 e0 d0 14 00 	mov    0x14d0e0(,%eax,4),%ecx
  101086:	83 c0 01             	add    $0x1,%eax
  101089:	99                   	cltd
  10108a:	c1 ea 18             	shr    $0x18,%edx
  10108d:	01 d0                	add    %edx,%eax
  10108f:	0f b6 c0             	movzbl %al,%eax
  101092:	29 d0                	sub    %edx,%eax
  101094:	a3 d0 d0 14 00       	mov    %eax,0x14d0d0
  101099:	89 c8                	mov    %ecx,%eax
  10109b:	c3                   	ret
  10109c:	8d 74 26 00          	lea    0x0(%esi,%eiz,1),%esi

001010a0 <keyboard_callback>:
  1010a0:	e4 60                	in     $0x60,%al
  1010a2:	3c e0                	cmp    $0xe0,%al
  1010a4:	0f 84 96 00 00 00    	je     101140 <keyboard_callback+0xa0>
  1010aa:	84 c0                	test   %al,%al
  1010ac:	0f 88 9e 00 00 00    	js     101150 <keyboard_callback+0xb0>
  1010b2:	8b 0d e0 d4 14 00    	mov    0x14d4e0,%ecx
  1010b8:	53                   	push   %ebx
  1010b9:	85 c9                	test   %ecx,%ecx
  1010bb:	74 23                	je     1010e0 <keyboard_callback+0x40>
  1010bd:	c7 05 e0 d4 14 00 00 	movl   $0x0,0x14d4e0
  1010c4:	00 00 00 
  1010c7:	83 e8 47             	sub    $0x47,%eax
  1010ca:	3c 14                	cmp    $0x14,%al
  1010cc:	77 6e                	ja     10113c <keyboard_callback+0x9c>
  1010ce:	0f b6 c0             	movzbl %al,%eax
  1010d1:	ff 24 85 40 84 11 00 	jmp    *0x118440(,%eax,4)
  1010d8:	2e 8d b4 26 00 00 00 	lea    %cs:0x0(%esi,%eiz,1),%esi
  1010df:	00 
  1010e0:	8d 50 e3             	lea    -0x1d(%eax),%edx
  1010e3:	80 fa 27             	cmp    $0x27,%dl
  1010e6:	77 10                	ja     1010f8 <keyboard_callback+0x58>
  1010e8:	0f b6 d2             	movzbl %dl,%edx
  1010eb:	ff 24 95 94 84 11 00 	jmp    *0x118494(,%edx,4)
  1010f2:	8d b6 00 00 00 00    	lea    0x0(%esi),%esi
  1010f8:	3c 57                	cmp    $0x57,%al
  1010fa:	0f 84 a0 01 00 00    	je     1012a0 <keyboard_callback+0x200>
  101100:	ba 95 00 00 00       	mov    $0x95,%edx
  101105:	3c 58                	cmp    $0x58,%al
  101107:	0f 85 9d 01 00 00    	jne    1012aa <keyboard_callback+0x20a>
  10110d:	8d 76 00             	lea    0x0(%esi),%esi
  101110:	8b 1d d4 d0 14 00    	mov    0x14d0d4,%ebx
  101116:	8d 43 01             	lea    0x1(%ebx),%eax
  101119:	89 c1                	mov    %eax,%ecx
  10111b:	c1 f9 1f             	sar    $0x1f,%ecx
  10111e:	c1 e9 18             	shr    $0x18,%ecx
  101121:	01 c8                	add    %ecx,%eax
  101123:	0f b6 c0             	movzbl %al,%eax
  101126:	29 c8                	sub    %ecx,%eax
  101128:	39 05 d0 d0 14 00    	cmp    %eax,0x14d0d0
  10112e:	74 0c                	je     10113c <keyboard_callback+0x9c>
  101130:	89 14 9d e0 d0 14 00 	mov    %edx,0x14d0e0(,%ebx,4)
  101137:	a3 d4 d0 14 00       	mov    %eax,0x14d0d4
  10113c:	5b                   	pop    %ebx
  10113d:	c3                   	ret
  10113e:	66 90                	xchg   %ax,%ax
  101140:	c7 05 e0 d4 14 00 01 	movl   $0x1,0x14d4e0
  101147:	00 00 00 
  10114a:	c3                   	ret
  10114b:	2e 8d 74 26 00       	lea    %cs:0x0(%esi,%eiz,1),%esi
  101150:	83 e0 7f             	and    $0x7f,%eax
  101153:	3c 2a                	cmp    $0x2a,%al
  101155:	74 21                	je     101178 <keyboard_callback+0xd8>
  101157:	3c 36                	cmp    $0x36,%al
  101159:	74 1d                	je     101178 <keyboard_callback+0xd8>
  10115b:	3c 1d                	cmp    $0x1d,%al
  10115d:	0f 84 2d 01 00 00    	je     101290 <keyboard_callback+0x1f0>
  101163:	3c 38                	cmp    $0x38,%al
  101165:	75 1b                	jne    101182 <keyboard_callback+0xe2>
  101167:	c7 05 c4 d0 14 00 00 	movl   $0x0,0x14d0c4
  10116e:	00 00 00 
  101171:	eb 0f                	jmp    101182 <keyboard_callback+0xe2>
  101173:	2e 8d 74 26 00       	lea    %cs:0x0(%esi,%eiz,1),%esi
  101178:	c7 05 cc d0 14 00 00 	movl   $0x0,0x14d0cc
  10117f:	00 00 00 
  101182:	c7 05 e0 d4 14 00 00 	movl   $0x0,0x14d4e0
  101189:	00 00 00 
  10118c:	c3                   	ret
  10118d:	8d 76 00             	lea    0x0(%esi),%esi
  101190:	0f b6 c0             	movzbl %al,%eax
  101193:	8d 50 4f             	lea    0x4f(%eax),%edx
  101196:	e9 75 ff ff ff       	jmp    101110 <keyboard_callback+0x70>
  10119b:	2e 8d 74 26 00       	lea    %cs:0x0(%esi,%eiz,1),%esi
  1011a0:	c7 05 cc d0 14 00 01 	movl   $0x1,0x14d0cc
  1011a7:	00 00 00 
  1011aa:	5b                   	pop    %ebx
  1011ab:	c3                   	ret
  1011ac:	8d 74 26 00          	lea    0x0(%esi,%eiz,1),%esi
  1011b0:	ba 86 00 00 00       	mov    $0x86,%edx
  1011b5:	e9 56 ff ff ff       	jmp    101110 <keyboard_callback+0x70>
  1011ba:	8d b6 00 00 00 00    	lea    0x0(%esi),%esi
  1011c0:	ba 82 00 00 00       	mov    $0x82,%edx
  1011c5:	e9 46 ff ff ff       	jmp    101110 <keyboard_callback+0x70>
  1011ca:	8d b6 00 00 00 00    	lea    0x0(%esi),%esi
  1011d0:	ba 83 00 00 00       	mov    $0x83,%edx
  1011d5:	e9 36 ff ff ff       	jmp    101110 <keyboard_callback+0x70>
  1011da:	8d b6 00 00 00 00    	lea    0x0(%esi),%esi
  1011e0:	ba 85 00 00 00       	mov    $0x85,%edx
  1011e5:	e9 26 ff ff ff       	jmp    101110 <keyboard_callback+0x70>
  1011ea:	8d b6 00 00 00 00    	lea    0x0(%esi),%esi
  1011f0:	ba 81 00 00 00       	mov    $0x81,%edx
  1011f5:	e9 16 ff ff ff       	jmp    101110 <keyboard_callback+0x70>
  1011fa:	8d b6 00 00 00 00    	lea    0x0(%esi),%esi
  101200:	ba 87 00 00 00       	mov    $0x87,%edx
  101205:	e9 06 ff ff ff       	jmp    101110 <keyboard_callback+0x70>
  10120a:	8d b6 00 00 00 00    	lea    0x0(%esi),%esi
  101210:	ba 88 00 00 00       	mov    $0x88,%edx
  101215:	e9 f6 fe ff ff       	jmp    101110 <keyboard_callback+0x70>
  10121a:	8d b6 00 00 00 00    	lea    0x0(%esi),%esi
  101220:	ba 89 00 00 00       	mov    $0x89,%edx
  101225:	e9 e6 fe ff ff       	jmp    101110 <keyboard_callback+0x70>
  10122a:	8d b6 00 00 00 00    	lea    0x0(%esi),%esi
  101230:	ba 84 00 00 00       	mov    $0x84,%edx
  101235:	e9 d6 fe ff ff       	jmp    101110 <keyboard_callback+0x70>
  10123a:	8d b6 00 00 00 00    	lea    0x0(%esi),%esi
  101240:	ba 80 00 00 00       	mov    $0x80,%edx
  101245:	e9 c6 fe ff ff       	jmp    101110 <keyboard_callback+0x70>
  10124a:	8d b6 00 00 00 00    	lea    0x0(%esi),%esi
  101250:	ba 97 00 00 00       	mov    $0x97,%edx
  101255:	e9 b6 fe ff ff       	jmp    101110 <keyboard_callback+0x70>
  10125a:	c7 05 c4 d0 14 00 01 	movl   $0x1,0x14d0c4
  101261:	00 00 00 
  101264:	5b                   	pop    %ebx
  101265:	c3                   	ret
  101266:	8b 15 c0 d0 14 00    	mov    0x14d0c0,%edx
  10126c:	31 c0                	xor    %eax,%eax
  10126e:	5b                   	pop    %ebx
  10126f:	85 d2                	test   %edx,%edx
  101271:	0f 94 c0             	sete   %al
  101274:	a3 c0 d0 14 00       	mov    %eax,0x14d0c0
  101279:	c3                   	ret
  10127a:	c7 05 c8 d0 14 00 01 	movl   $0x1,0x14d0c8
  101281:	00 00 00 
  101284:	5b                   	pop    %ebx
  101285:	c3                   	ret
  101286:	2e 8d b4 26 00 00 00 	lea    %cs:0x0(%esi,%eiz,1),%esi
  10128d:	00 
  10128e:	66 90                	xchg   %ax,%ax
  101290:	c7 05 c8 d0 14 00 00 	movl   $0x0,0x14d0c8
  101297:	00 00 00 
  10129a:	e9 e3 fe ff ff       	jmp    101182 <keyboard_callback+0xe2>
  10129f:	90                   	nop
  1012a0:	ba 94 00 00 00       	mov    $0x94,%edx
  1012a5:	e9 66 fe ff ff       	jmp    101110 <keyboard_callback+0x70>
  1012aa:	3c 39                	cmp    $0x39,%al
  1012ac:	0f 87 8a fe ff ff    	ja     10113c <keyboard_callback+0x9c>
  1012b2:	8b 0d cc d0 14 00    	mov    0x14d0cc,%ecx
  1012b8:	0f b6 c0             	movzbl %al,%eax
  1012bb:	3b 0d c0 d0 14 00    	cmp    0x14d0c0,%ecx
  1012c1:	74 2d                	je     1012f0 <keyboard_callback+0x250>
  1012c3:	0f be 90 80 85 11 00 	movsbl 0x118580(%eax),%edx
  1012ca:	8d 5a 9f             	lea    -0x61(%edx),%ebx
  1012cd:	80 fb 19             	cmp    $0x19,%bl
  1012d0:	76 04                	jbe    1012d6 <keyboard_callback+0x236>
  1012d2:	85 c9                	test   %ecx,%ecx
  1012d4:	74 07                	je     1012dd <keyboard_callback+0x23d>
  1012d6:	0f be 90 40 85 11 00 	movsbl 0x118540(%eax),%edx
  1012dd:	85 d2                	test   %edx,%edx
  1012df:	0f 85 2b fe ff ff    	jne    101110 <keyboard_callback+0x70>
  1012e5:	5b                   	pop    %ebx
  1012e6:	c3                   	ret
  1012e7:	2e 8d b4 26 00 00 00 	lea    %cs:0x0(%esi,%eiz,1),%esi
  1012ee:	00 
  1012ef:	90                   	nop
  1012f0:	85 c9                	test   %ecx,%ecx
  1012f2:	75 e2                	jne    1012d6 <keyboard_callback+0x236>
  1012f4:	0f be 90 80 85 11 00 	movsbl 0x118580(%eax),%edx
  1012fb:	eb e0                	jmp    1012dd <keyboard_callback+0x23d>
  1012fd:	66 90                	xchg   %ax,%ax
  1012ff:	90                   	nop

00101300 <mouse_wait>:
  101300:	80 7c 24 04 00       	cmpb   $0x0,0x4(%esp)
  101305:	ba a1 86 01 00       	mov    $0x186a1,%edx
  10130a:	75 14                	jne    101320 <mouse_wait+0x20>
  10130c:	8d 74 26 00          	lea    0x0(%esi,%eiz,1),%esi
  101310:	83 ea 01             	sub    $0x1,%edx
  101313:	74 17                	je     10132c <mouse_wait+0x2c>
  101315:	e4 64                	in     $0x64,%al
  101317:	a8 01                	test   $0x1,%al
  101319:	74 f5                	je     101310 <mouse_wait+0x10>
  10131b:	c3                   	ret
  10131c:	8d 74 26 00          	lea    0x0(%esi,%eiz,1),%esi
  101320:	83 ea 01             	sub    $0x1,%edx
  101323:	74 06                	je     10132b <mouse_wait+0x2b>
  101325:	e4 64                	in     $0x64,%al
  101327:	a8 02                	test   $0x2,%al
  101329:	75 f5                	jne    101320 <mouse_wait+0x20>
  10132b:	c3                   	ret
  10132c:	c3                   	ret
  10132d:	8d 76 00             	lea    0x0(%esi),%esi

00101330 <mouse_write>:
  101330:	0f b6 4c 24 04       	movzbl 0x4(%esp),%ecx
  101335:	ba a1 86 01 00       	mov    $0x186a1,%edx
  10133a:	8d b6 00 00 00 00    	lea    0x0(%esi),%esi
  101340:	83 ea 01             	sub    $0x1,%edx
  101343:	74 06                	je     10134b <mouse_write+0x1b>
  101345:	e4 64                	in     $0x64,%al
  101347:	a8 02                	test   $0x2,%al
  101349:	75 f5                	jne    101340 <mouse_write+0x10>
  10134b:	b8 d4 ff ff ff       	mov    $0xffffffd4,%eax
  101350:	e6 64                	out    %al,$0x64
  101352:	ba a1 86 01 00       	mov    $0x186a1,%edx
  101357:	2e 8d b4 26 00 00 00 	lea    %cs:0x0(%esi,%eiz,1),%esi
  10135e:	00 
  10135f:	90                   	nop
  101360:	83 ea 01             	sub    $0x1,%edx
  101363:	74 06                	je     10136b <mouse_write+0x3b>
  101365:	e4 64                	in     $0x64,%al
  101367:	a8 02                	test   $0x2,%al
  101369:	75 f5                	jne    101360 <mouse_write+0x30>
  10136b:	89 c8                	mov    %ecx,%eax
  10136d:	e6 60                	out    %al,$0x60
  10136f:	c3                   	ret

00101370 <mouse_read>:
  101370:	ba a1 86 01 00       	mov    $0x186a1,%edx
  101375:	8d 76 00             	lea    0x0(%esi),%esi
  101378:	83 ea 01             	sub    $0x1,%edx
  10137b:	74 06                	je     101383 <mouse_read+0x13>
  10137d:	e4 64                	in     $0x64,%al
  10137f:	a8 01                	test   $0x1,%al
  101381:	74 f5                	je     101378 <mouse_read+0x8>
  101383:	e4 60                	in     $0x60,%al
  101385:	c3                   	ret
  101386:	2e 8d b4 26 00 00 00 	lea    %cs:0x0(%esi,%eiz,1),%esi
  10138d:	00 
  10138e:	66 90                	xchg   %ax,%ax

00101390 <mouse_handler>:
  101390:	e4 64                	in     $0x64,%al
  101392:	a8 20                	test   $0x20,%al
  101394:	0f 84 d6 00 00 00    	je     101470 <mouse_handler+0xe0>
  10139a:	e4 60                	in     $0x60,%al
  10139c:	0f b6 15 ef d4 14 00 	movzbl 0x14d4ef,%edx
  1013a3:	84 d2                	test   %dl,%dl
  1013a5:	75 19                	jne    1013c0 <mouse_handler+0x30>
  1013a7:	a8 08                	test   $0x8,%al
  1013a9:	0f 84 c1 00 00 00    	je     101470 <mouse_handler+0xe0>
  1013af:	a2 ec d4 14 00       	mov    %al,0x14d4ec
  1013b4:	c6 05 ef d4 14 00 01 	movb   $0x1,0x14d4ef
  1013bb:	c3                   	ret
  1013bc:	8d 74 26 00          	lea    0x0(%esi,%eiz,1),%esi
  1013c0:	0f b6 ca             	movzbl %dl,%ecx
  1013c3:	88 81 ec d4 14 00    	mov    %al,0x14d4ec(%ecx)
  1013c9:	8d 42 01             	lea    0x1(%edx),%eax
  1013cc:	80 fa 02             	cmp    $0x2,%dl
  1013cf:	0f 85 bf 00 00 00    	jne    101494 <mouse_handler+0x104>
  1013d5:	0f be 05 ec d4 14 00 	movsbl 0x14d4ec,%eax
  1013dc:	c6 05 ef d4 14 00 00 	movb   $0x0,0x14d4ef
  1013e3:	89 c2                	mov    %eax,%edx
  1013e5:	83 e2 01             	and    $0x1,%edx
  1013e8:	89 15 e8 d4 14 00    	mov    %edx,0x14d4e8
  1013ee:	89 c2                	mov    %eax,%edx
  1013f0:	d1 fa                	sar    $1,%edx
  1013f2:	83 e2 01             	and    $0x1,%edx
  1013f5:	89 15 e4 d4 14 00    	mov    %edx,0x14d4e4
  1013fb:	a8 c0                	test   $0xc0,%al
  1013fd:	75 71                	jne    101470 <mouse_handler+0xe0>
  1013ff:	0f be 05 ee d4 14 00 	movsbl 0x14d4ee,%eax
  101406:	8b 0d 00 41 14 00    	mov    0x144100,%ecx
  10140c:	56                   	push   %esi
  10140d:	be c8 00 00 00       	mov    $0xc8,%esi
  101412:	8b 15 0c d0 14 00    	mov    0x14d00c,%edx
  101418:	53                   	push   %ebx
  101419:	29 c1                	sub    %eax,%ecx
  10141b:	0f be 1d ed d4 14 00 	movsbl 0x14d4ed,%ebx
  101422:	b8 40 01 00 00       	mov    $0x140,%eax
  101427:	03 1d 04 41 14 00    	add    0x144104,%ebx
  10142d:	85 d2                	test   %edx,%edx
  10142f:	89 1d 04 41 14 00    	mov    %ebx,0x144104
  101435:	0f 4e d0             	cmovle %eax,%edx
  101438:	a1 08 d0 14 00       	mov    0x14d008,%eax
  10143d:	89 0d 00 41 14 00    	mov    %ecx,0x144100
  101443:	85 c0                	test   %eax,%eax
  101445:	0f 4e c6             	cmovle %esi,%eax
  101448:	85 db                	test   %ebx,%ebx
  10144a:	78 3c                	js     101488 <mouse_handler+0xf8>
  10144c:	39 d3                	cmp    %edx,%ebx
  10144e:	7c 09                	jl     101459 <mouse_handler+0xc9>
  101450:	83 ea 01             	sub    $0x1,%edx
  101453:	89 15 04 41 14 00    	mov    %edx,0x144104
  101459:	85 c9                	test   %ecx,%ecx
  10145b:	78 1b                	js     101478 <mouse_handler+0xe8>
  10145d:	39 c1                	cmp    %eax,%ecx
  10145f:	7c 08                	jl     101469 <mouse_handler+0xd9>
  101461:	83 e8 01             	sub    $0x1,%eax
  101464:	a3 00 41 14 00       	mov    %eax,0x144100
  101469:	5b                   	pop    %ebx
  10146a:	5e                   	pop    %esi
  10146b:	c3                   	ret
  10146c:	8d 74 26 00          	lea    0x0(%esi,%eiz,1),%esi
  101470:	c3                   	ret
  101471:	8d b4 26 00 00 00 00 	lea    0x0(%esi,%eiz,1),%esi
  101478:	c7 05 00 41 14 00 00 	movl   $0x0,0x144100
  10147f:	00 00 00 
  101482:	eb e5                	jmp    101469 <mouse_handler+0xd9>
  101484:	8d 74 26 00          	lea    0x0(%esi,%eiz,1),%esi
  101488:	c7 05 04 41 14 00 00 	movl   $0x0,0x144104
  10148f:	00 00 00 
  101492:	eb c5                	jmp    101459 <mouse_handler+0xc9>
  101494:	a2 ef d4 14 00       	mov    %al,0x14d4ef
  101499:	c3                   	ret
  10149a:	8d b6 00 00 00 00    	lea    0x0(%esi),%esi

001014a0 <init_mouse>:
  1014a0:	c7 05 e8 d4 14 00 00 	movl   $0x0,0x14d4e8
  1014a7:	00 00 00 
  1014aa:	ba a1 86 01 00       	mov    $0x186a1,%edx
  1014af:	c7 05 e4 d4 14 00 00 	movl   $0x0,0x14d4e4
  1014b6:	00 00 00 
  1014b9:	c6 05 ef d4 14 00 00 	movb   $0x0,0x14d4ef
  1014c0:	83 ea 01             	sub    $0x1,%edx
  1014c3:	74 06                	je     1014cb <init_mouse+0x2b>
  1014c5:	e4 64                	in     $0x64,%al
  1014c7:	a8 02                	test   $0x2,%al
  1014c9:	75 f5                	jne    1014c0 <init_mouse+0x20>
  1014cb:	b8 a8 ff ff ff       	mov    $0xffffffa8,%eax
  1014d0:	e6 64                	out    %al,$0x64
  1014d2:	ba a1 86 01 00       	mov    $0x186a1,%edx
  1014d7:	2e 8d b4 26 00 00 00 	lea    %cs:0x0(%esi,%eiz,1),%esi
  1014de:	00 
  1014df:	90                   	nop
  1014e0:	83 ea 01             	sub    $0x1,%edx
  1014e3:	74 06                	je     1014eb <init_mouse+0x4b>
  1014e5:	e4 64                	in     $0x64,%al
  1014e7:	a8 02                	test   $0x2,%al
  1014e9:	75 f5                	jne    1014e0 <init_mouse+0x40>
  1014eb:	b8 20 00 00 00       	mov    $0x20,%eax
  1014f0:	e6 64                	out    %al,$0x64
  1014f2:	ba a1 86 01 00       	mov    $0x186a1,%edx
  1014f7:	2e 8d b4 26 00 00 00 	lea    %cs:0x0(%esi,%eiz,1),%esi
  1014fe:	00 
  1014ff:	90                   	nop
  101500:	83 ea 01             	sub    $0x1,%edx
  101503:	74 06                	je     10150b <init_mouse+0x6b>
  101505:	e4 64                	in     $0x64,%al
  101507:	a8 01                	test   $0x1,%al
  101509:	74 f5                	je     101500 <init_mouse+0x60>
  10150b:	e4 60                	in     $0x60,%al
  10150d:	89 c1                	mov    %eax,%ecx
  10150f:	ba a1 86 01 00       	mov    $0x186a1,%edx
  101514:	83 e1 df             	and    $0xffffffdf,%ecx
  101517:	83 c9 02             	or     $0x2,%ecx
  10151a:	8d b6 00 00 00 00    	lea    0x0(%esi),%esi
  101520:	83 ea 01             	sub    $0x1,%edx
  101523:	74 06                	je     10152b <init_mouse+0x8b>
  101525:	e4 64                	in     $0x64,%al
  101527:	a8 02                	test   $0x2,%al
  101529:	75 f5                	jne    101520 <init_mouse+0x80>
  10152b:	b8 60 00 00 00       	mov    $0x60,%eax
  101530:	e6 64                	out    %al,$0x64
  101532:	ba a1 86 01 00       	mov    $0x186a1,%edx
  101537:	2e 8d b4 26 00 00 00 	lea    %cs:0x0(%esi,%eiz,1),%esi
  10153e:	00 
  10153f:	90                   	nop
  101540:	83 ea 01             	sub    $0x1,%edx
  101543:	74 06                	je     10154b <init_mouse+0xab>
  101545:	e4 64                	in     $0x64,%al
  101547:	a8 02                	test   $0x2,%al
  101549:	75 f5                	jne    101540 <init_mouse+0xa0>
  10154b:	89 c8                	mov    %ecx,%eax
  10154d:	e6 60                	out    %al,$0x60
  10154f:	ba a1 86 01 00       	mov    $0x186a1,%edx
  101554:	8d 74 26 00          	lea    0x0(%esi,%eiz,1),%esi
  101558:	83 ea 01             	sub    $0x1,%edx
  10155b:	74 06                	je     101563 <init_mouse+0xc3>
  10155d:	e4 64                	in     $0x64,%al
  10155f:	a8 02                	test   $0x2,%al
  101561:	75 f5                	jne    101558 <init_mouse+0xb8>
  101563:	b8 d4 ff ff ff       	mov    $0xffffffd4,%eax
  101568:	e6 64                	out    %al,$0x64
  10156a:	ba a1 86 01 00       	mov    $0x186a1,%edx
  10156f:	90                   	nop
  101570:	83 ea 01             	sub    $0x1,%edx
  101573:	74 06                	je     10157b <init_mouse+0xdb>
  101575:	e4 64                	in     $0x64,%al
  101577:	a8 02                	test   $0x2,%al
  101579:	75 f5                	jne    101570 <init_mouse+0xd0>
  10157b:	b8 ff ff ff ff       	mov    $0xffffffff,%eax
  101580:	e6 60                	out    %al,$0x60
  101582:	ba a1 86 01 00       	mov    $0x186a1,%edx
  101587:	2e 8d b4 26 00 00 00 	lea    %cs:0x0(%esi,%eiz,1),%esi
  10158e:	00 
  10158f:	90                   	nop
  101590:	83 ea 01             	sub    $0x1,%edx
  101593:	74 06                	je     10159b <init_mouse+0xfb>
  101595:	e4 64                	in     $0x64,%al
  101597:	a8 01                	test   $0x1,%al
  101599:	74 f5                	je     101590 <init_mouse+0xf0>
  10159b:	e4 60                	in     $0x60,%al
  10159d:	ba a1 86 01 00       	mov    $0x186a1,%edx
  1015a2:	8d b6 00 00 00 00    	lea    0x0(%esi),%esi
  1015a8:	83 ea 01             	sub    $0x1,%edx
  1015ab:	74 06                	je     1015b3 <init_mouse+0x113>
  1015ad:	e4 64                	in     $0x64,%al
  1015af:	a8 02                	test   $0x2,%al
  1015b1:	75 f5                	jne    1015a8 <init_mouse+0x108>
  1015b3:	b8 d4 ff ff ff       	mov    $0xffffffd4,%eax
  1015b8:	e6 64                	out    %al,$0x64
  1015ba:	ba a1 86 01 00       	mov    $0x186a1,%edx
  1015bf:	90                   	nop
  1015c0:	83 ea 01             	sub    $0x1,%edx
  1015c3:	74 06                	je     1015cb <init_mouse+0x12b>
  1015c5:	e4 64                	in     $0x64,%al
  1015c7:	a8 02                	test   $0x2,%al
  1015c9:	75 f5                	jne    1015c0 <init_mouse+0x120>
  1015cb:	b8 f4 ff ff ff       	mov    $0xfffffff4,%eax
  1015d0:	e6 60                	out    %al,$0x60
  1015d2:	ba a1 86 01 00       	mov    $0x186a1,%edx
  1015d7:	2e 8d b4 26 00 00 00 	lea    %cs:0x0(%esi,%eiz,1),%esi
  1015de:	00 
  1015df:	90                   	nop
  1015e0:	83 ea 01             	sub    $0x1,%edx
  1015e3:	74 06                	je     1015eb <init_mouse+0x14b>
  1015e5:	e4 64                	in     $0x64,%al
  1015e7:	a8 01                	test   $0x1,%al
  1015e9:	74 f5                	je     1015e0 <init_mouse+0x140>
  1015eb:	e4 60                	in     $0x60,%al
  1015ed:	e4 a1                	in     $0xa1,%al
  1015ef:	83 e0 ef             	and    $0xffffffef,%eax
  1015f2:	e6 a1                	out    %al,$0xa1
  1015f4:	e4 21                	in     $0x21,%al
  1015f6:	83 e0 fb             	and    $0xfffffffb,%eax
  1015f9:	e6 21                	out    %al,$0x21
  1015fb:	c3                   	ret
  1015fc:	66 90                	xchg   %ax,%ax
  1015fe:	66 90                	xchg   %ax,%ax

00101600 <beep>:
  101600:	83 ec 0c             	sub    $0xc,%esp
  101603:	8b 54 24 10          	mov    0x10(%esp),%edx
  101607:	85 d2                	test   %edx,%edx
  101609:	7e 35                	jle    101640 <beep+0x40>
  10160b:	b8 b6 ff ff ff       	mov    $0xffffffb6,%eax
  101610:	e6 43                	out    %al,$0x43
  101612:	b8 a9 ff ff ff       	mov    $0xffffffa9,%eax
  101617:	e6 42                	out    %al,$0x42
  101619:	b8 04 00 00 00       	mov    $0x4,%eax
  10161e:	e6 42                	out    %al,$0x42
  101620:	e4 61                	in     $0x61,%al
  101622:	89 c1                	mov    %eax,%ecx
  101624:	83 c8 03             	or     $0x3,%eax
  101627:	38 c1                	cmp    %al,%cl
  101629:	74 02                	je     10162d <beep+0x2d>
  10162b:	e6 61                	out    %al,$0x61
  10162d:	83 ec 0c             	sub    $0xc,%esp
  101630:	52                   	push   %edx
  101631:	e8 0a 3a 00 00       	call   105040 <sys_delay>
  101636:	e4 61                	in     $0x61,%al
  101638:	83 e0 fc             	and    $0xfffffffc,%eax
  10163b:	e6 61                	out    %al,$0x61
  10163d:	83 c4 10             	add    $0x10,%esp
  101640:	83 c4 0c             	add    $0xc,%esp
  101643:	c3                   	ret
  101644:	2e 8d b4 26 00 00 00 	lea    %cs:0x0(%esi,%eiz,1),%esi
  10164b:	00 
  10164c:	8d 74 26 00          	lea    0x0(%esi,%eiz,1),%esi

00101650 <play_startup_chime>:
  101650:	83 ec 0c             	sub    $0xc,%esp
  101653:	b8 b6 ff ff ff       	mov    $0xffffffb6,%eax
  101658:	e6 43                	out    %al,$0x43
  10165a:	b8 4b 00 00 00       	mov    $0x4b,%eax
  10165f:	e6 42                	out    %al,$0x42
  101661:	b8 05 00 00 00       	mov    $0x5,%eax
  101666:	e6 42                	out    %al,$0x42
  101668:	e4 61                	in     $0x61,%al
  10166a:	89 c2                	mov    %eax,%edx
  10166c:	83 c8 03             	or     $0x3,%eax
  10166f:	38 c2                	cmp    %al,%dl
  101671:	74 02                	je     101675 <play_startup_chime+0x25>
  101673:	e6 61                	out    %al,$0x61
  101675:	83 ec 0c             	sub    $0xc,%esp
  101678:	6a 50                	push   $0x50
  10167a:	e8 c1 39 00 00       	call   105040 <sys_delay>
  10167f:	e4 61                	in     $0x61,%al
  101681:	83 e0 fc             	and    $0xfffffffc,%eax
  101684:	e6 61                	out    %al,$0x61
  101686:	c7 04 24 32 00 00 00 	movl   $0x32,(%esp)
  10168d:	e8 ae 39 00 00       	call   105040 <sys_delay>
  101692:	b8 b6 ff ff ff       	mov    $0xffffffb6,%eax
  101697:	e6 43                	out    %al,$0x43
  101699:	b8 3c 00 00 00       	mov    $0x3c,%eax
  10169e:	e6 42                	out    %al,$0x42
  1016a0:	b8 04 00 00 00       	mov    $0x4,%eax
  1016a5:	e6 42                	out    %al,$0x42
  1016a7:	e4 61                	in     $0x61,%al
  1016a9:	89 c2                	mov    %eax,%edx
  1016ab:	83 c8 03             	or     $0x3,%eax
  1016ae:	83 c4 10             	add    $0x10,%esp
  1016b1:	38 c2                	cmp    %al,%dl
  1016b3:	74 02                	je     1016b7 <play_startup_chime+0x67>
  1016b5:	e6 61                	out    %al,$0x61
  1016b7:	83 ec 0c             	sub    $0xc,%esp
  1016ba:	6a 78                	push   $0x78
  1016bc:	e8 7f 39 00 00       	call   105040 <sys_delay>
  1016c1:	e4 61                	in     $0x61,%al
  1016c3:	83 e0 fc             	and    $0xfffffffc,%eax
  1016c6:	e6 61                	out    %al,$0x61
  1016c8:	83 c4 1c             	add    $0x1c,%esp
  1016cb:	c3                   	ret
  1016cc:	66 90                	xchg   %ax,%ax
  1016ce:	66 90                	xchg   %ax,%ax

001016d0 <pci_read_config_dword>:
  1016d0:	0f b6 44 24 04       	movzbl 0x4(%esp),%eax
  1016d5:	8b 54 24 10          	mov    0x10(%esp),%edx
  1016d9:	c1 e0 10             	shl    $0x10,%eax
  1016dc:	81 e2 fc 00 00 00    	and    $0xfc,%edx
  1016e2:	09 d0                	or     %edx,%eax
  1016e4:	0f b6 54 24 0c       	movzbl 0xc(%esp),%edx
  1016e9:	c1 e2 08             	shl    $0x8,%edx
  1016ec:	09 d0                	or     %edx,%eax
  1016ee:	0f b6 54 24 08       	movzbl 0x8(%esp),%edx
  1016f3:	c1 e2 0b             	shl    $0xb,%edx
  1016f6:	09 d0                	or     %edx,%eax
  1016f8:	ba f8 0c 00 00       	mov    $0xcf8,%edx
  1016fd:	0d 00 00 00 80       	or     $0x80000000,%eax
  101702:	ef                   	out    %eax,(%dx)
  101703:	ba fc 0c 00 00       	mov    $0xcfc,%edx
  101708:	ed                   	in     (%dx),%eax
  101709:	c3                   	ret
  10170a:	8d b6 00 00 00 00    	lea    0x0(%esi),%esi

00101710 <pci_write_config_dword>:
  101710:	0f b6 44 24 04       	movzbl 0x4(%esp),%eax
  101715:	8b 54 24 10          	mov    0x10(%esp),%edx
  101719:	c1 e0 10             	shl    $0x10,%eax
  10171c:	81 e2 fc 00 00 00    	and    $0xfc,%edx
  101722:	09 d0                	or     %edx,%eax
  101724:	0f b6 54 24 0c       	movzbl 0xc(%esp),%edx
  101729:	c1 e2 08             	shl    $0x8,%edx
  10172c:	09 d0                	or     %edx,%eax
  10172e:	0f b6 54 24 08       	movzbl 0x8(%esp),%edx
  101733:	c1 e2 0b             	shl    $0xb,%edx
  101736:	09 d0                	or     %edx,%eax
  101738:	ba f8 0c 00 00       	mov    $0xcf8,%edx
  10173d:	0d 00 00 00 80       	or     $0x80000000,%eax
  101742:	ef                   	out    %eax,(%dx)
  101743:	ba fc 0c 00 00       	mov    $0xcfc,%edx
  101748:	8b 44 24 14          	mov    0x14(%esp),%eax
  10174c:	ef                   	out    %eax,(%dx)
  10174d:	c3                   	ret
  10174e:	66 90                	xchg   %ax,%ax

00101750 <pci_get_bar_size>:
  101750:	55                   	push   %ebp
  101751:	57                   	push   %edi
  101752:	bf f8 0c 00 00       	mov    $0xcf8,%edi
  101757:	56                   	push   %esi
  101758:	89 fa                	mov    %edi,%edx
  10175a:	53                   	push   %ebx
  10175b:	0f b6 4c 24 14       	movzbl 0x14(%esp),%ecx
  101760:	8b 44 24 20          	mov    0x20(%esp),%eax
  101764:	c1 e1 10             	shl    $0x10,%ecx
  101767:	25 fc 00 00 00       	and    $0xfc,%eax
  10176c:	09 c1                	or     %eax,%ecx
  10176e:	0f b6 44 24 18       	movzbl 0x18(%esp),%eax
  101773:	c1 e0 0b             	shl    $0xb,%eax
  101776:	09 c1                	or     %eax,%ecx
  101778:	0f b6 44 24 1c       	movzbl 0x1c(%esp),%eax
  10177d:	c1 e0 08             	shl    $0x8,%eax
  101780:	09 c1                	or     %eax,%ecx
  101782:	81 c9 00 00 00 80    	or     $0x80000000,%ecx
  101788:	89 c8                	mov    %ecx,%eax
  10178a:	ef                   	out    %eax,(%dx)
  10178b:	be fc 0c 00 00       	mov    $0xcfc,%esi
  101790:	89 f2                	mov    %esi,%edx
  101792:	ed                   	in     (%dx),%eax
  101793:	89 c5                	mov    %eax,%ebp
  101795:	89 fa                	mov    %edi,%edx
  101797:	89 c8                	mov    %ecx,%eax
  101799:	ef                   	out    %eax,(%dx)
  10179a:	b8 ff ff ff ff       	mov    $0xffffffff,%eax
  10179f:	89 f2                	mov    %esi,%edx
  1017a1:	ef                   	out    %eax,(%dx)
  1017a2:	89 c8                	mov    %ecx,%eax
  1017a4:	89 fa                	mov    %edi,%edx
  1017a6:	ef                   	out    %eax,(%dx)
  1017a7:	89 f2                	mov    %esi,%edx
  1017a9:	ed                   	in     (%dx),%eax
  1017aa:	89 c3                	mov    %eax,%ebx
  1017ac:	89 fa                	mov    %edi,%edx
  1017ae:	89 c8                	mov    %ecx,%eax
  1017b0:	ef                   	out    %eax,(%dx)
  1017b1:	89 e8                	mov    %ebp,%eax
  1017b3:	89 f2                	mov    %esi,%edx
  1017b5:	ef                   	out    %eax,(%dx)
  1017b6:	89 d8                	mov    %ebx,%eax
  1017b8:	5b                   	pop    %ebx
  1017b9:	5e                   	pop    %esi
  1017ba:	83 e0 fc             	and    $0xfffffffc,%eax
  1017bd:	5f                   	pop    %edi
  1017be:	5d                   	pop    %ebp
  1017bf:	f7 d8                	neg    %eax
  1017c1:	c3                   	ret
  1017c2:	2e 8d b4 26 00 00 00 	lea    %cs:0x0(%esi,%eiz,1),%esi
  1017c9:	00 
  1017ca:	8d b6 00 00 00 00    	lea    0x0(%esi),%esi

001017d0 <pci_enable_bus_master>:
  1017d0:	57                   	push   %edi
  1017d1:	bf f8 0c 00 00       	mov    $0xcf8,%edi
  1017d6:	56                   	push   %esi
  1017d7:	53                   	push   %ebx
  1017d8:	8b 44 24 10          	mov    0x10(%esp),%eax
  1017dc:	0f b6 48 0c          	movzbl 0xc(%eax),%ecx
  1017e0:	0f b6 50 0e          	movzbl 0xe(%eax),%edx
  1017e4:	0f b6 40 0d          	movzbl 0xd(%eax),%eax
  1017e8:	c1 e2 08             	shl    $0x8,%edx
  1017eb:	c1 e1 10             	shl    $0x10,%ecx
  1017ee:	09 d1                	or     %edx,%ecx
  1017f0:	c1 e0 0b             	shl    $0xb,%eax
  1017f3:	89 fa                	mov    %edi,%edx
  1017f5:	09 c1                	or     %eax,%ecx
  1017f7:	81 c9 04 00 00 80    	or     $0x80000004,%ecx
  1017fd:	89 c8                	mov    %ecx,%eax
  1017ff:	ef                   	out    %eax,(%dx)
  101800:	be fc 0c 00 00       	mov    $0xcfc,%esi
  101805:	89 f2                	mov    %esi,%edx
  101807:	ed                   	in     (%dx),%eax
  101808:	89 c3                	mov    %eax,%ebx
  10180a:	89 fa                	mov    %edi,%edx
  10180c:	89 c8                	mov    %ecx,%eax
  10180e:	ef                   	out    %eax,(%dx)
  10180f:	89 d8                	mov    %ebx,%eax
  101811:	89 f2                	mov    %esi,%edx
  101813:	80 e4 fb             	and    $0xfb,%ah
  101816:	83 c8 07             	or     $0x7,%eax
  101819:	ef                   	out    %eax,(%dx)
  10181a:	c7 44 24 10 80 23 14 	movl   $0x142380,0x10(%esp)
  101821:	00 
  101822:	5b                   	pop    %ebx
  101823:	5e                   	pop    %esi
  101824:	5f                   	pop    %edi
  101825:	e9 56 f7 ff ff       	jmp    100f80 <s_printf>
  10182a:	8d b6 00 00 00 00    	lea    0x0(%esi),%esi

00101830 <pci_check_function>:
  101830:	55                   	push   %ebp
  101831:	57                   	push   %edi
  101832:	56                   	push   %esi
  101833:	53                   	push   %ebx
  101834:	81 ec 4c 01 00 00    	sub    $0x14c,%esp
  10183a:	8b bc 24 60 01 00 00 	mov    0x160(%esp),%edi
  101841:	8b 8c 24 64 01 00 00 	mov    0x164(%esp),%ecx
  101848:	8b b4 24 68 01 00 00 	mov    0x168(%esp),%esi
  10184f:	89 f8                	mov    %edi,%eax
  101851:	89 4c 24 0c          	mov    %ecx,0xc(%esp)
  101855:	0f b6 d8             	movzbl %al,%ebx
  101858:	0f b6 c1             	movzbl %cl,%eax
  10185b:	89 74 24 04          	mov    %esi,0x4(%esp)
  10185f:	be f8 0c 00 00       	mov    $0xcf8,%esi
  101864:	c1 e0 0b             	shl    $0xb,%eax
  101867:	c1 e3 10             	shl    $0x10,%ebx
  10186a:	89 f2                	mov    %esi,%edx
  10186c:	09 c3                	or     %eax,%ebx
  10186e:	0f b6 44 24 04       	movzbl 0x4(%esp),%eax
  101873:	c1 e0 08             	shl    $0x8,%eax
  101876:	09 c3                	or     %eax,%ebx
  101878:	89 d8                	mov    %ebx,%eax
  10187a:	0d 00 00 00 80       	or     $0x80000000,%eax
  10187f:	ef                   	out    %eax,(%dx)
  101880:	bd fc 0c 00 00       	mov    $0xcfc,%ebp
  101885:	89 ea                	mov    %ebp,%edx
  101887:	ed                   	in     (%dx),%eax
  101888:	89 c2                	mov    %eax,%edx
  10188a:	0f b7 c0             	movzwl %ax,%eax
  10188d:	89 54 24 08          	mov    %edx,0x8(%esp)
  101891:	3d ff ff 00 00       	cmp    $0xffff,%eax
  101896:	0f 84 7e 01 00 00    	je     101a1a <pci_check_function+0x1ea>
  10189c:	83 ec 04             	sub    $0x4,%esp
  10189f:	6a 5c                	push   $0x5c
  1018a1:	6a 00                	push   $0x0
  1018a3:	8d 44 24 70          	lea    0x70(%esp),%eax
  1018a7:	50                   	push   %eax
  1018a8:	e8 53 44 00 00       	call   105d00 <memset>
  1018ad:	89 f8                	mov    %edi,%eax
  1018af:	8b 54 24 18          	mov    0x18(%esp),%edx
  1018b3:	8b 4c 24 1c          	mov    0x1c(%esp),%ecx
  1018b7:	88 84 24 80 00 00 00 	mov    %al,0x80(%esp)
  1018be:	0f b6 44 24 14       	movzbl 0x14(%esp),%eax
  1018c3:	89 54 24 78          	mov    %edx,0x78(%esp)
  1018c7:	89 f2                	mov    %esi,%edx
  1018c9:	88 84 24 82 00 00 00 	mov    %al,0x82(%esp)
  1018d0:	89 d8                	mov    %ebx,%eax
  1018d2:	88 8c 24 81 00 00 00 	mov    %cl,0x81(%esp)
  1018d9:	0d 08 00 00 80       	or     $0x80000008,%eax
  1018de:	ef                   	out    %eax,(%dx)
  1018df:	89 ea                	mov    %ebp,%edx
  1018e1:	ed                   	in     (%dx),%eax
  1018e2:	c7 04 24 4d 2d 14 00 	movl   $0x142d4d,(%esp)
  1018e9:	0f c8                	bswap  %eax
  1018eb:	89 44 24 7c          	mov    %eax,0x7c(%esp)
  1018ef:	e8 8c f6 ff ff       	call   100f80 <s_printf>
  1018f4:	58                   	pop    %eax
  1018f5:	5a                   	pop    %edx
  1018f6:	8d 7c 24 2c          	lea    0x2c(%esp),%edi
  1018fa:	57                   	push   %edi
  1018fb:	0f b7 44 24 74       	movzwl 0x74(%esp),%eax
  101900:	50                   	push   %eax
  101901:	e8 2a 42 00 00       	call   105b30 <int_to_str>
  101906:	89 3c 24             	mov    %edi,(%esp)
  101909:	e8 72 f6 ff ff       	call   100f80 <s_printf>
  10190e:	c7 04 24 61 2d 14 00 	movl   $0x142d61,(%esp)
  101915:	e8 66 f6 ff ff       	call   100f80 <s_printf>
  10191a:	59                   	pop    %ecx
  10191b:	58                   	pop    %eax
  10191c:	57                   	push   %edi
  10191d:	0f b7 44 24 76       	movzwl 0x76(%esp),%eax
  101922:	50                   	push   %eax
  101923:	e8 08 42 00 00       	call   105b30 <int_to_str>
  101928:	89 3c 24             	mov    %edi,(%esp)
  10192b:	e8 50 f6 ff ff       	call   100f80 <s_printf>
  101930:	c7 04 24 a4 30 14 00 	movl   $0x1430a4,(%esp)
  101937:	e8 44 f6 ff ff       	call   100f80 <s_printf>
  10193c:	89 d8                	mov    %ebx,%eax
  10193e:	89 f2                	mov    %esi,%edx
  101940:	0d 0c 00 00 80       	or     $0x8000000c,%eax
  101945:	ef                   	out    %eax,(%dx)
  101946:	89 ea                	mov    %ebp,%edx
  101948:	ed                   	in     (%dx),%eax
  101949:	8d 8c 24 b4 00 00 00 	lea    0xb4(%esp),%ecx
  101950:	be d0 ff ff ff       	mov    $0xffffffd0,%esi
  101955:	bf f8 0c 00 00       	mov    $0xcf8,%edi
  10195a:	8d ac 24 cc 00 00 00 	lea    0xcc(%esp),%ebp
  101961:	83 c4 10             	add    $0x10,%esp
  101964:	8d 44 24 64          	lea    0x64(%esp),%eax
  101968:	29 c6                	sub    %eax,%esi
  10196a:	eb 17                	jmp    101983 <pci_check_function+0x153>
  10196c:	8d 74 26 00          	lea    0x0(%esi,%eiz,1),%esi
  101970:	83 e0 fc             	and    $0xfffffffc,%eax
  101973:	c7 01 01 00 00 00    	movl   $0x1,(%ecx)
  101979:	89 41 d0             	mov    %eax,-0x30(%ecx)
  10197c:	83 c1 04             	add    $0x4,%ecx
  10197f:	39 e9                	cmp    %ebp,%ecx
  101981:	74 2e                	je     1019b1 <pci_check_function+0x181>
  101983:	8d 04 0e             	lea    (%esi,%ecx,1),%eax
  101986:	89 fa                	mov    %edi,%edx
  101988:	09 d8                	or     %ebx,%eax
  10198a:	0d 00 00 00 80       	or     $0x80000000,%eax
  10198f:	ef                   	out    %eax,(%dx)
  101990:	ba fc 0c 00 00       	mov    $0xcfc,%edx
  101995:	ed                   	in     (%dx),%eax
  101996:	85 c0                	test   %eax,%eax
  101998:	74 e2                	je     10197c <pci_check_function+0x14c>
  10199a:	a8 01                	test   $0x1,%al
  10199c:	75 d2                	jne    101970 <pci_check_function+0x140>
  10199e:	83 e0 f0             	and    $0xfffffff0,%eax
  1019a1:	c7 01 00 00 00 00    	movl   $0x0,(%ecx)
  1019a7:	83 c1 04             	add    $0x4,%ecx
  1019aa:	89 41 cc             	mov    %eax,-0x34(%ecx)
  1019ad:	39 e9                	cmp    %ebp,%ecx
  1019af:	75 d2                	jne    101983 <pci_check_function+0x153>
  1019b1:	89 d8                	mov    %ebx,%eax
  1019b3:	ba f8 0c 00 00       	mov    $0xcf8,%edx
  1019b8:	0d 3c 00 00 80       	or     $0x8000003c,%eax
  1019bd:	ef                   	out    %eax,(%dx)
  1019be:	ba fc 0c 00 00       	mov    $0xcfc,%edx
  1019c3:	ed                   	in     (%dx),%eax
  1019c4:	66 89 84 24 bc 00 00 	mov    %ax,0xbc(%esp)
  1019cb:	00 
  1019cc:	83 ec 08             	sub    $0x8,%esp
  1019cf:	68 6a 2d 14 00       	push   $0x142d6a
  1019d4:	8d 9c 24 cc 00 00 00 	lea    0xcc(%esp),%ebx
  1019db:	53                   	push   %ebx
  1019dc:	e8 df 3e 00 00       	call   1058c0 <strcpy>
  1019e1:	83 c4 10             	add    $0x10,%esp
  1019e4:	81 7c 24 68 ec 10 39 	cmpl   $0x813910ec,0x68(%esp)
  1019eb:	81 
  1019ec:	0f 84 2e 01 00 00    	je     101b20 <pci_check_function+0x2f0>
  1019f2:	66 81 7c 24 68 ec 10 	cmpw   $0x10ec,0x68(%esp)
  1019f9:	74 2d                	je     101a28 <pci_check_function+0x1f8>
  1019fb:	8b 44 24 6c          	mov    0x6c(%esp),%eax
  1019ff:	25 ff ff ff 00       	and    $0xffffff,%eax
  101a04:	3d 0c 03 30 00       	cmp    $0x30030c,%eax
  101a09:	0f 84 d9 00 00 00    	je     101ae8 <pci_check_function+0x2b8>
  101a0f:	80 7c 24 6c 03       	cmpb   $0x3,0x6c(%esp)
  101a14:	0f 84 9e 00 00 00    	je     101ab8 <pci_check_function+0x288>
  101a1a:	81 c4 4c 01 00 00    	add    $0x14c,%esp
  101a20:	5b                   	pop    %ebx
  101a21:	5e                   	pop    %esi
  101a22:	5f                   	pop    %edi
  101a23:	5d                   	pop    %ebp
  101a24:	c3                   	ret
  101a25:	8d 76 00             	lea    0x0(%esi),%esi
  101a28:	0f b7 44 24 6a       	movzwl 0x6a(%esp),%eax
  101a2d:	66 3d 61 81          	cmp    $0x8161,%ax
  101a31:	0f 94 c2             	sete   %dl
  101a34:	66 3d 36 81          	cmp    $0x8136,%ax
  101a38:	0f 94 c1             	sete   %cl
  101a3b:	08 ca                	or     %cl,%dl
  101a3d:	75 0a                	jne    101a49 <pci_check_function+0x219>
  101a3f:	66 05 98 7e          	add    $0x7e98,%ax
  101a43:	66 83 f8 01          	cmp    $0x1,%ax
  101a47:	77 b2                	ja     1019fb <pci_check_function+0x1cb>
  101a49:	0f b6 84 24 bc 00 00 	movzbl 0xbc(%esp),%eax
  101a50:	00 
  101a51:	83 ec 08             	sub    $0x8,%esp
  101a54:	68 b8 23 14 00       	push   $0x1423b8
  101a59:	53                   	push   %ebx
  101a5a:	a2 08 41 14 00       	mov    %al,0x144108
  101a5f:	e8 fc 3e 00 00       	call   105960 <strcat>
  101a64:	89 1c 24             	mov    %ebx,(%esp)
  101a67:	e8 14 f5 ff ff       	call   100f80 <s_printf>
  101a6c:	c7 04 24 8e 2d 14 00 	movl   $0x142d8e,(%esp)
  101a73:	e8 08 f5 ff ff       	call   100f80 <s_printf>
  101a78:	5a                   	pop    %edx
  101a79:	59                   	pop    %ecx
  101a7a:	8d 5c 24 24          	lea    0x24(%esp),%ebx
  101a7e:	53                   	push   %ebx
  101a7f:	0f b6 84 24 c8 00 00 	movzbl 0xc8(%esp),%eax
  101a86:	00 
  101a87:	50                   	push   %eax
  101a88:	e8 a3 40 00 00       	call   105b30 <int_to_str>
  101a8d:	89 1c 24             	mov    %ebx,(%esp)
  101a90:	e8 eb f4 ff ff       	call   100f80 <s_printf>
  101a95:	c7 04 24 a4 30 14 00 	movl   $0x1430a4,(%esp)
  101a9c:	e8 df f4 ff ff       	call   100f80 <s_printf>
  101aa1:	5b                   	pop    %ebx
  101aa2:	8d 44 24 70          	lea    0x70(%esp),%eax
  101aa6:	50                   	push   %eax
  101aa7:	e8 14 07 00 00       	call   1021c0 <rtl8169_init>
  101aac:	83 c4 10             	add    $0x10,%esp
  101aaf:	e9 66 ff ff ff       	jmp    101a1a <pci_check_function+0x1ea>
  101ab4:	8d 74 26 00          	lea    0x0(%esi,%eiz,1),%esi
  101ab8:	83 ec 08             	sub    $0x8,%esp
  101abb:	68 af 2d 14 00       	push   $0x142daf
  101ac0:	53                   	push   %ebx
  101ac1:	e8 9a 3e 00 00       	call   105960 <strcat>
  101ac6:	89 1c 24             	mov    %ebx,(%esp)
  101ac9:	e8 b2 f4 ff ff       	call   100f80 <s_printf>
  101ace:	c7 04 24 a4 30 14 00 	movl   $0x1430a4,(%esp)
  101ad5:	e8 a6 f4 ff ff       	call   100f80 <s_printf>
  101ada:	83 c4 10             	add    $0x10,%esp
  101add:	e9 38 ff ff ff       	jmp    101a1a <pci_check_function+0x1ea>
  101ae2:	8d b6 00 00 00 00    	lea    0x0(%esi),%esi
  101ae8:	83 ec 08             	sub    $0x8,%esp
  101aeb:	68 97 2d 14 00       	push   $0x142d97
  101af0:	53                   	push   %ebx
  101af1:	e8 6a 3e 00 00       	call   105960 <strcat>
  101af6:	89 1c 24             	mov    %ebx,(%esp)
  101af9:	e8 82 f4 ff ff       	call   100f80 <s_printf>
  101afe:	c7 04 24 a4 30 14 00 	movl   $0x1430a4,(%esp)
  101b05:	e8 76 f4 ff ff       	call   100f80 <s_printf>
  101b0a:	58                   	pop    %eax
  101b0b:	8d 44 24 70          	lea    0x70(%esp),%eax
  101b0f:	50                   	push   %eax
  101b10:	e8 7b 0a 00 00       	call   102590 <xhci_controller_init>
  101b15:	83 c4 10             	add    $0x10,%esp
  101b18:	e9 fd fe ff ff       	jmp    101a1a <pci_check_function+0x1ea>
  101b1d:	8d 76 00             	lea    0x0(%esi),%esi
  101b20:	0f b6 84 24 bc 00 00 	movzbl 0xbc(%esp),%eax
  101b27:	00 
  101b28:	83 ec 08             	sub    $0x8,%esp
  101b2b:	68 78 2d 14 00       	push   $0x142d78
  101b30:	53                   	push   %ebx
  101b31:	a2 09 41 14 00       	mov    %al,0x144109
  101b36:	e8 25 3e 00 00       	call   105960 <strcat>
  101b3b:	89 1c 24             	mov    %ebx,(%esp)
  101b3e:	e8 3d f4 ff ff       	call   100f80 <s_printf>
  101b43:	c7 04 24 8e 2d 14 00 	movl   $0x142d8e,(%esp)
  101b4a:	e8 31 f4 ff ff       	call   100f80 <s_printf>
  101b4f:	5e                   	pop    %esi
  101b50:	5f                   	pop    %edi
  101b51:	8d 5c 24 24          	lea    0x24(%esp),%ebx
  101b55:	53                   	push   %ebx
  101b56:	0f b6 84 24 c8 00 00 	movzbl 0xc8(%esp),%eax
  101b5d:	00 
  101b5e:	50                   	push   %eax
  101b5f:	e8 cc 3f 00 00       	call   105b30 <int_to_str>
  101b64:	89 1c 24             	mov    %ebx,(%esp)
  101b67:	e8 14 f4 ff ff       	call   100f80 <s_printf>
  101b6c:	c7 04 24 a4 30 14 00 	movl   $0x1430a4,(%esp)
  101b73:	e8 08 f4 ff ff       	call   100f80 <s_printf>
  101b78:	5d                   	pop    %ebp
  101b79:	8d 44 24 70          	lea    0x70(%esp),%eax
  101b7d:	50                   	push   %eax
  101b7e:	e8 9d 01 00 00       	call   101d20 <rtl8139_init>
  101b83:	83 c4 10             	add    $0x10,%esp
  101b86:	e9 8f fe ff ff       	jmp    101a1a <pci_check_function+0x1ea>
  101b8b:	2e 8d 74 26 00       	lea    %cs:0x0(%esi,%eiz,1),%esi

00101b90 <pci_init>:
  101b90:	55                   	push   %ebp
  101b91:	bd f8 0c 00 00       	mov    $0xcf8,%ebp
  101b96:	57                   	push   %edi
  101b97:	56                   	push   %esi
  101b98:	53                   	push   %ebx
  101b99:	83 ec 1c             	sub    $0x1c,%esp
  101b9c:	c7 44 24 04 00 00 00 	movl   $0x0,0x4(%esp)
  101ba3:	00 
  101ba4:	8d 74 26 00          	lea    0x0(%esi,%eiz,1),%esi
  101ba8:	8b 44 24 04          	mov    0x4(%esp),%eax
  101bac:	31 f6                	xor    %esi,%esi
  101bae:	bf fc 0c 00 00       	mov    $0xcfc,%edi
  101bb3:	c1 e0 10             	shl    $0x10,%eax
  101bb6:	89 44 24 08          	mov    %eax,0x8(%esp)
  101bba:	eb 10                	jmp    101bcc <pci_init+0x3c>
  101bbc:	8d 74 26 00          	lea    0x0(%esi,%eiz,1),%esi
  101bc0:	83 c6 01             	add    $0x1,%esi
  101bc3:	83 fe 20             	cmp    $0x20,%esi
  101bc6:	0f 84 a4 00 00 00    	je     101c70 <pci_init+0xe0>
  101bcc:	8b 44 24 08          	mov    0x8(%esp),%eax
  101bd0:	89 f3                	mov    %esi,%ebx
  101bd2:	89 ea                	mov    %ebp,%edx
  101bd4:	c1 e3 0b             	shl    $0xb,%ebx
  101bd7:	09 c3                	or     %eax,%ebx
  101bd9:	89 d8                	mov    %ebx,%eax
  101bdb:	0d 00 00 00 80       	or     $0x80000000,%eax
  101be0:	ef                   	out    %eax,(%dx)
  101be1:	89 fa                	mov    %edi,%edx
  101be3:	ed                   	in     (%dx),%eax
  101be4:	0f b7 c0             	movzwl %ax,%eax
  101be7:	3d ff ff 00 00       	cmp    $0xffff,%eax
  101bec:	74 d2                	je     101bc0 <pci_init+0x30>
  101bee:	83 ec 04             	sub    $0x4,%esp
  101bf1:	6a 00                	push   $0x0
  101bf3:	56                   	push   %esi
  101bf4:	ff 74 24 10          	push   0x10(%esp)
  101bf8:	e8 33 fc ff ff       	call   101830 <pci_check_function>
  101bfd:	89 d8                	mov    %ebx,%eax
  101bff:	89 ea                	mov    %ebp,%edx
  101c01:	0d 0c 00 00 80       	or     $0x8000000c,%eax
  101c06:	ef                   	out    %eax,(%dx)
  101c07:	89 fa                	mov    %edi,%edx
  101c09:	ed                   	in     (%dx),%eax
  101c0a:	83 c4 10             	add    $0x10,%esp
  101c0d:	a9 00 00 80 00       	test   $0x800000,%eax
  101c12:	74 ac                	je     101bc0 <pci_init+0x30>
  101c14:	b9 01 00 00 00       	mov    $0x1,%ecx
  101c19:	89 74 24 0c          	mov    %esi,0xc(%esp)
  101c1d:	89 de                	mov    %ebx,%esi
  101c1f:	89 cb                	mov    %ecx,%ebx
  101c21:	8d b4 26 00 00 00 00 	lea    0x0(%esi,%eiz,1),%esi
  101c28:	89 d8                	mov    %ebx,%eax
  101c2a:	89 ea                	mov    %ebp,%edx
  101c2c:	c1 e0 08             	shl    $0x8,%eax
  101c2f:	09 f0                	or     %esi,%eax
  101c31:	0d 00 00 00 80       	or     $0x80000000,%eax
  101c36:	ef                   	out    %eax,(%dx)
  101c37:	89 fa                	mov    %edi,%edx
  101c39:	ed                   	in     (%dx),%eax
  101c3a:	0f b7 c0             	movzwl %ax,%eax
  101c3d:	3d ff ff 00 00       	cmp    $0xffff,%eax
  101c42:	74 14                	je     101c58 <pci_init+0xc8>
  101c44:	83 ec 04             	sub    $0x4,%esp
  101c47:	53                   	push   %ebx
  101c48:	ff 74 24 14          	push   0x14(%esp)
  101c4c:	ff 74 24 10          	push   0x10(%esp)
  101c50:	e8 db fb ff ff       	call   101830 <pci_check_function>
  101c55:	83 c4 10             	add    $0x10,%esp
  101c58:	83 c3 01             	add    $0x1,%ebx
  101c5b:	83 fb 08             	cmp    $0x8,%ebx
  101c5e:	75 c8                	jne    101c28 <pci_init+0x98>
  101c60:	8b 74 24 0c          	mov    0xc(%esp),%esi
  101c64:	83 c6 01             	add    $0x1,%esi
  101c67:	83 fe 20             	cmp    $0x20,%esi
  101c6a:	0f 85 5c ff ff ff    	jne    101bcc <pci_init+0x3c>
  101c70:	83 44 24 04 01       	addl   $0x1,0x4(%esp)
  101c75:	8b 44 24 04          	mov    0x4(%esp),%eax
  101c79:	3d 00 01 00 00       	cmp    $0x100,%eax
  101c7e:	0f 85 24 ff ff ff    	jne    101ba8 <pci_init+0x18>
  101c84:	83 c4 1c             	add    $0x1c,%esp
  101c87:	5b                   	pop    %ebx
  101c88:	5e                   	pop    %esi
  101c89:	5f                   	pop    %edi
  101c8a:	5d                   	pop    %ebp
  101c8b:	c3                   	ret
  101c8c:	66 90                	xchg   %ax,%ax
  101c8e:	66 90                	xchg   %ax,%ax

00101c90 <rtl8139_send_wrapper>:
  101c90:	55                   	push   %ebp
  101c91:	57                   	push   %edi
  101c92:	56                   	push   %esi
  101c93:	53                   	push   %ebx
  101c94:	83 ec 0c             	sub    $0xc,%esp
  101c97:	a1 88 d5 14 00       	mov    0x14d588,%eax
  101c9c:	8b 7c 24 20          	mov    0x20(%esp),%edi
  101ca0:	8b 74 24 28          	mov    0x28(%esp),%esi
  101ca4:	85 c0                	test   %eax,%eax
  101ca6:	74 68                	je     101d10 <rtl8139_send_wrapper+0x80>
  101ca8:	8b 1d 78 d5 14 00    	mov    0x14d578,%ebx
  101cae:	a1 84 d5 14 00       	mov    0x14d584,%eax
  101cb3:	83 ec 04             	sub    $0x4,%esp
  101cb6:	56                   	push   %esi
  101cb7:	c1 e3 0b             	shl    $0xb,%ebx
  101cba:	ff 74 24 2c          	push   0x2c(%esp)
  101cbe:	01 d8                	add    %ebx,%eax
  101cc0:	50                   	push   %eax
  101cc1:	e8 8a 40 00 00       	call   105d50 <memcpy>
  101cc6:	a1 88 d5 14 00       	mov    0x14d588,%eax
  101ccb:	8b 0d 78 d5 14 00    	mov    0x14d578,%ecx
  101cd1:	8d 2c 88             	lea    (%eax,%ecx,4),%ebp
  101cd4:	a1 84 d5 14 00       	mov    0x14d584,%eax
  101cd9:	8d 55 20             	lea    0x20(%ebp),%edx
  101cdc:	01 d8                	add    %ebx,%eax
  101cde:	ef                   	out    %eax,(%dx)
  101cdf:	8d 55 10             	lea    0x10(%ebp),%edx
  101ce2:	89 f0                	mov    %esi,%eax
  101ce4:	ef                   	out    %eax,(%dx)
  101ce5:	8d 41 01             	lea    0x1(%ecx),%eax
  101ce8:	83 c4 10             	add    $0x10,%esp
  101ceb:	31 d2                	xor    %edx,%edx
  101ced:	83 f8 04             	cmp    $0x4,%eax
  101cf0:	0f 4d c2             	cmovge %edx,%eax
  101cf3:	83 47 60 01          	addl   $0x1,0x60(%edi)
  101cf7:	01 77 68             	add    %esi,0x68(%edi)
  101cfa:	a3 78 d5 14 00       	mov    %eax,0x14d578
  101cff:	31 c0                	xor    %eax,%eax
  101d01:	83 c4 0c             	add    $0xc,%esp
  101d04:	5b                   	pop    %ebx
  101d05:	5e                   	pop    %esi
  101d06:	5f                   	pop    %edi
  101d07:	5d                   	pop    %ebp
  101d08:	c3                   	ret
  101d09:	8d b4 26 00 00 00 00 	lea    0x0(%esi,%eiz,1),%esi
  101d10:	b8 ff ff ff ff       	mov    $0xffffffff,%eax
  101d15:	eb ea                	jmp    101d01 <rtl8139_send_wrapper+0x71>
  101d17:	2e 8d b4 26 00 00 00 	lea    %cs:0x0(%esi,%eiz,1),%esi
  101d1e:	00 
  101d1f:	90                   	nop

00101d20 <rtl8139_init>:
  101d20:	56                   	push   %esi
  101d21:	53                   	push   %ebx
  101d22:	83 ec 50             	sub    $0x50,%esp
  101d25:	8b 5c 24 5c          	mov    0x5c(%esp),%ebx
  101d29:	68 be 2d 14 00       	push   $0x142dbe
  101d2e:	e8 4d f2 ff ff       	call   100f80 <s_printf>
  101d33:	89 1c 24             	mov    %ebx,(%esp)
  101d36:	e8 95 fa ff ff       	call   1017d0 <pci_enable_bus_master>
  101d3b:	8b 4b 10             	mov    0x10(%ebx),%ecx
  101d3e:	31 c0                	xor    %eax,%eax
  101d40:	83 e1 fc             	and    $0xfffffffc,%ecx
  101d43:	89 0d 88 d5 14 00    	mov    %ecx,0x14d588
  101d49:	8d 51 52             	lea    0x52(%ecx),%edx
  101d4c:	ee                   	out    %al,(%dx)
  101d4d:	b8 10 00 00 00       	mov    $0x10,%eax
  101d52:	8d 51 37             	lea    0x37(%ecx),%edx
  101d55:	ee                   	out    %al,(%dx)
  101d56:	b9 a0 86 01 00       	mov    $0x186a0,%ecx
  101d5b:	83 c4 10             	add    $0x10,%esp
  101d5e:	eb 09                	jmp    101d69 <rtl8139_init+0x49>
  101d60:	83 e9 01             	sub    $0x1,%ecx
  101d63:	0f 82 3f 01 00 00    	jb     101ea8 <rtl8139_init+0x188>
  101d69:	ec                   	in     (%dx),%al
  101d6a:	a8 10                	test   $0x10,%al
  101d6c:	75 f2                	jne    101d60 <rtl8139_init+0x40>
  101d6e:	85 c9                	test   %ecx,%ecx
  101d70:	0f 84 32 01 00 00    	je     101ea8 <rtl8139_init+0x188>
  101d76:	83 ec 0c             	sub    $0xc,%esp
  101d79:	68 10 26 00 00       	push   $0x2610
  101d7e:	e8 ad 40 00 00       	call   105e30 <kmalloc>
  101d83:	c7 04 24 00 20 00 00 	movl   $0x2000,(%esp)
  101d8a:	a3 80 d5 14 00       	mov    %eax,0x14d580
  101d8f:	e8 9c 40 00 00       	call   105e30 <kmalloc>
  101d94:	83 c4 0c             	add    $0xc,%esp
  101d97:	68 10 26 00 00       	push   $0x2610
  101d9c:	6a 00                	push   $0x0
  101d9e:	ff 35 80 d5 14 00    	push   0x14d580
  101da4:	a3 84 d5 14 00       	mov    %eax,0x14d584
  101da9:	e8 52 3f 00 00       	call   105d00 <memset>
  101dae:	8b 0d 88 d5 14 00    	mov    0x14d588,%ecx
  101db4:	a1 80 d5 14 00       	mov    0x14d580,%eax
  101db9:	8d 51 30             	lea    0x30(%ecx),%edx
  101dbc:	ef                   	out    %eax,(%dx)
  101dbd:	b8 ab 00 00 00       	mov    $0xab,%eax
  101dc2:	8d 51 44             	lea    0x44(%ecx),%edx
  101dc5:	ef                   	out    %eax,(%dx)
  101dc6:	b8 0c 00 00 00       	mov    $0xc,%eax
  101dcb:	8d 51 37             	lea    0x37(%ecx),%edx
  101dce:	ee                   	out    %al,(%dx)
  101dcf:	b8 ff ff ff ff       	mov    $0xffffffff,%eax
  101dd4:	8d 51 3e             	lea    0x3e(%ecx),%edx
  101dd7:	66 ef                	out    %ax,(%dx)
  101dd9:	b8 05 00 00 00       	mov    $0x5,%eax
  101dde:	8d 51 3c             	lea    0x3c(%ecx),%edx
  101de1:	66 ef                	out    %ax,(%dx)
  101de3:	83 c4 0c             	add    $0xc,%esp
  101de6:	6a 78                	push   $0x78
  101de8:	6a 00                	push   $0x0
  101dea:	68 00 d5 14 00       	push   $0x14d500
  101def:	e8 0c 3f 00 00       	call   105d00 <memset>
  101df4:	58                   	pop    %eax
  101df5:	5a                   	pop    %edx
  101df6:	68 f2 2d 14 00       	push   $0x142df2
  101dfb:	68 00 d5 14 00       	push   $0x14d500
  101e00:	e8 bb 3a 00 00       	call   1058c0 <strcpy>
  101e05:	0f b7 35 88 d5 14 00 	movzwl 0x14d588,%esi
  101e0c:	83 c4 10             	add    $0x10,%esp
  101e0f:	31 c9                	xor    %ecx,%ecx
  101e11:	8d b4 26 00 00 00 00 	lea    0x0(%esi,%eiz,1),%esi
  101e18:	8d 14 0e             	lea    (%esi,%ecx,1),%edx
  101e1b:	ec                   	in     (%dx),%al
  101e1c:	88 81 10 d5 14 00    	mov    %al,0x14d510(%ecx)
  101e22:	83 c1 01             	add    $0x1,%ecx
  101e25:	83 f9 06             	cmp    $0x6,%ecx
  101e28:	75 ee                	jne    101e18 <rtl8139_init+0xf8>
  101e2a:	0f b6 05 15 d5 14 00 	movzbl 0x14d515,%eax
  101e31:	50                   	push   %eax
  101e32:	0f b6 05 14 d5 14 00 	movzbl 0x14d514,%eax
  101e39:	50                   	push   %eax
  101e3a:	0f b6 05 13 d5 14 00 	movzbl 0x14d513,%eax
  101e41:	50                   	push   %eax
  101e42:	0f b6 05 12 d5 14 00 	movzbl 0x14d512,%eax
  101e49:	50                   	push   %eax
  101e4a:	0f b6 05 11 d5 14 00 	movzbl 0x14d511,%eax
  101e51:	50                   	push   %eax
  101e52:	0f b6 05 10 d5 14 00 	movzbl 0x14d510,%eax
  101e59:	50                   	push   %eax
  101e5a:	68 e0 23 14 00       	push   $0x1423e0
  101e5f:	8d 74 24 1c          	lea    0x1c(%esp),%esi
  101e63:	56                   	push   %esi
  101e64:	e8 f7 3c 00 00       	call   105b60 <sprintf>
  101e69:	83 c4 14             	add    $0x14,%esp
  101e6c:	56                   	push   %esi
  101e6d:	e8 0e f1 ff ff       	call   100f80 <s_printf>
  101e72:	89 1d 70 d5 14 00    	mov    %ebx,0x14d570
  101e78:	c7 04 24 00 d5 14 00 	movl   $0x14d500,(%esp)
  101e7f:	c7 05 6c d5 14 00 90 	movl   $0x101c90,0x14d56c
  101e86:	1c 10 00 
  101e89:	c7 05 54 d5 14 00 01 	movl   $0x1,0x14d554
  101e90:	00 00 00 
  101e93:	e8 18 57 00 00       	call   1075b0 <net_register_interface>
  101e98:	e8 13 5e 00 00       	call   107cb0 <net_dhcp_discover>
  101e9d:	83 c4 54             	add    $0x54,%esp
  101ea0:	5b                   	pop    %ebx
  101ea1:	5e                   	pop    %esi
  101ea2:	c3                   	ret
  101ea3:	2e 8d 74 26 00       	lea    %cs:0x0(%esi,%eiz,1),%esi
  101ea8:	83 ec 0c             	sub    $0xc,%esp
  101eab:	68 d8 2d 14 00       	push   $0x142dd8
  101eb0:	e8 cb f0 ff ff       	call   100f80 <s_printf>
  101eb5:	83 c4 10             	add    $0x10,%esp
  101eb8:	e9 b9 fe ff ff       	jmp    101d76 <rtl8139_init+0x56>
  101ebd:	8d 76 00             	lea    0x0(%esi),%esi

00101ec0 <rtl8139_handler>:
  101ec0:	55                   	push   %ebp
  101ec1:	57                   	push   %edi
  101ec2:	56                   	push   %esi
  101ec3:	53                   	push   %ebx
  101ec4:	83 ec 1c             	sub    $0x1c,%esp
  101ec7:	8b 1d 88 d5 14 00    	mov    0x14d588,%ebx
  101ecd:	85 db                	test   %ebx,%ebx
  101ecf:	0f 84 dc 00 00 00    	je     101fb1 <rtl8139_handler+0xf1>
  101ed5:	66 89 5c 24 0e       	mov    %bx,0xe(%esp)
  101eda:	8d 53 3e             	lea    0x3e(%ebx),%edx
  101edd:	66 ed                	in     (%dx),%ax
  101edf:	66 ef                	out    %ax,(%dx)
  101ee1:	a8 11                	test   $0x11,%al
  101ee3:	0f 84 c8 00 00 00    	je     101fb1 <rtl8139_handler+0xf1>
  101ee9:	8d 53 37             	lea    0x37(%ebx),%edx
  101eec:	ec                   	in     (%dx),%al
  101eed:	a8 01                	test   $0x1,%al
  101eef:	0f 85 bc 00 00 00    	jne    101fb1 <rtl8139_handler+0xf1>
  101ef5:	8b 0d 7c d5 14 00    	mov    0x14d57c,%ecx
  101efb:	be 20 00 00 00       	mov    $0x20,%esi
  101f00:	eb 31                	jmp    101f33 <rtl8139_handler+0x73>
  101f02:	8d b6 00 00 00 00    	lea    0x0(%esi),%esi
  101f08:	8d 4c 29 07          	lea    0x7(%ecx,%ebp,1),%ecx
  101f0c:	66 89 5c 24 0e       	mov    %bx,0xe(%esp)
  101f11:	8d 53 38             	lea    0x38(%ebx),%edx
  101f14:	83 e1 fc             	and    $0xfffffffc,%ecx
  101f17:	89 0d 7c d5 14 00    	mov    %ecx,0x14d57c
  101f1d:	8d 41 f0             	lea    -0x10(%ecx),%eax
  101f20:	66 ef                	out    %ax,(%dx)
  101f22:	8d 53 37             	lea    0x37(%ebx),%edx
  101f25:	ec                   	in     (%dx),%al
  101f26:	a8 01                	test   $0x1,%al
  101f28:	0f 85 83 00 00 00    	jne    101fb1 <rtl8139_handler+0xf1>
  101f2e:	83 ee 01             	sub    $0x1,%esi
  101f31:	74 7e                	je     101fb1 <rtl8139_handler+0xf1>
  101f33:	8b 3d 80 d5 14 00    	mov    0x14d580,%edi
  101f39:	89 ca                	mov    %ecx,%edx
  101f3b:	81 e2 ff 1f 00 00    	and    $0x1fff,%edx
  101f41:	8d 04 17             	lea    (%edi,%edx,1),%eax
  101f44:	0f b7 40 02          	movzwl 0x2(%eax),%eax
  101f48:	8d 68 ff             	lea    -0x1(%eax),%ebp
  101f4b:	66 81 fd ff 07       	cmp    $0x7ff,%bp
  101f50:	77 46                	ja     101f98 <rtl8139_handler+0xd8>
  101f52:	0f b7 e8             	movzwl %ax,%ebp
  101f55:	66 83 f8 03          	cmp    $0x3,%ax
  101f59:	76 ad                	jbe    101f08 <rtl8139_handler+0x48>
  101f5b:	83 ec 08             	sub    $0x8,%esp
  101f5e:	8d 45 fc             	lea    -0x4(%ebp),%eax
  101f61:	50                   	push   %eax
  101f62:	8d 44 17 04          	lea    0x4(%edi,%edx,1),%eax
  101f66:	50                   	push   %eax
  101f67:	e8 a4 59 00 00       	call   107910 <net_handle_packet>
  101f6c:	a1 64 d5 14 00       	mov    0x14d564,%eax
  101f71:	83 c4 10             	add    $0x10,%esp
  101f74:	83 05 5c d5 14 00 01 	addl   $0x1,0x14d55c
  101f7b:	8b 0d 7c d5 14 00    	mov    0x14d57c,%ecx
  101f81:	8b 1d 88 d5 14 00    	mov    0x14d588,%ebx
  101f87:	8d 44 05 fc          	lea    -0x4(%ebp,%eax,1),%eax
  101f8b:	a3 64 d5 14 00       	mov    %eax,0x14d564
  101f90:	e9 73 ff ff ff       	jmp    101f08 <rtl8139_handler+0x48>
  101f95:	8d 76 00             	lea    0x0(%esi),%esi
  101f98:	0f b7 54 24 0e       	movzwl 0xe(%esp),%edx
  101f9d:	b8 f0 ff ff ff       	mov    $0xfffffff0,%eax
  101fa2:	c7 05 7c d5 14 00 00 	movl   $0x0,0x14d57c
  101fa9:	00 00 00 
  101fac:	83 c2 38             	add    $0x38,%edx
  101faf:	66 ef                	out    %ax,(%dx)
  101fb1:	83 c4 1c             	add    $0x1c,%esp
  101fb4:	5b                   	pop    %ebx
  101fb5:	5e                   	pop    %esi
  101fb6:	5f                   	pop    %edi
  101fb7:	5d                   	pop    %ebp
  101fb8:	c3                   	ret
  101fb9:	66 90                	xchg   %ax,%ax
  101fbb:	66 90                	xchg   %ax,%ax
  101fbd:	66 90                	xchg   %ax,%ax
  101fbf:	90                   	nop

00101fc0 <rtl8169_send>:
  101fc0:	53                   	push   %ebx
  101fc1:	83 ec 08             	sub    $0x8,%esp
  101fc4:	a1 58 d8 14 00       	mov    0x14d858,%eax
  101fc9:	8b 5c 24 18          	mov    0x18(%esp),%ebx
  101fcd:	85 c0                	test   %eax,%eax
  101fcf:	0f 84 ab 00 00 00    	je     102080 <rtl8169_send+0xc0>
  101fd5:	b8 00 06 00 00       	mov    $0x600,%eax
  101fda:	8b 15 a0 d5 14 00    	mov    0x14d5a0,%edx
  101fe0:	39 c3                	cmp    %eax,%ebx
  101fe2:	0f 47 d8             	cmova  %eax,%ebx
  101fe5:	89 d0                	mov    %edx,%eax
  101fe7:	c1 e0 04             	shl    $0x4,%eax
  101fea:	03 05 c0 d7 14 00    	add    0x14d7c0,%eax
  101ff0:	8b 00                	mov    (%eax),%eax
  101ff2:	85 c0                	test   %eax,%eax
  101ff4:	0f 88 86 00 00 00    	js     102080 <rtl8169_send+0xc0>
  101ffa:	83 ec 04             	sub    $0x4,%esp
  101ffd:	53                   	push   %ebx
  101ffe:	ff 74 24 1c          	push   0x1c(%esp)
  102002:	ff 34 95 c0 d5 14 00 	push   0x14d5c0(,%edx,4)
  102009:	e8 42 3d 00 00       	call   105d50 <memcpy>
  10200e:	8b 0d a0 d5 14 00    	mov    0x14d5a0,%ecx
  102014:	89 d8                	mov    %ebx,%eax
  102016:	83 c4 10             	add    $0x10,%esp
  102019:	0d 00 00 00 b0       	or     $0xb0000000,%eax
  10201e:	81 cb 00 00 00 f0    	or     $0xf0000000,%ebx
  102024:	83 f9 3f             	cmp    $0x3f,%ecx
  102027:	8b 14 8d c0 d5 14 00 	mov    0x14d5c0(,%ecx,4),%edx
  10202e:	0f 45 d8             	cmovne %eax,%ebx
  102031:	89 c8                	mov    %ecx,%eax
  102033:	c1 e0 04             	shl    $0x4,%eax
  102036:	03 05 c0 d7 14 00    	add    0x14d7c0,%eax
  10203c:	89 50 08             	mov    %edx,0x8(%eax)
  10203f:	89 18                	mov    %ebx,(%eax)
  102041:	0f b7 05 58 d8 14 00 	movzwl 0x14d858,%eax
  102048:	8d 50 38             	lea    0x38(%eax),%edx
  10204b:	b8 40 00 00 00       	mov    $0x40,%eax
  102050:	ee                   	out    %al,(%dx)
  102051:	83 c1 01             	add    $0x1,%ecx
  102054:	83 05 40 d8 14 00 01 	addl   $0x1,0x14d840
  10205b:	89 c8                	mov    %ecx,%eax
  10205d:	c1 f8 1f             	sar    $0x1f,%eax
  102060:	c1 e8 1a             	shr    $0x1a,%eax
  102063:	01 c1                	add    %eax,%ecx
  102065:	83 e1 3f             	and    $0x3f,%ecx
  102068:	29 c1                	sub    %eax,%ecx
  10206a:	31 c0                	xor    %eax,%eax
  10206c:	89 0d a0 d5 14 00    	mov    %ecx,0x14d5a0
  102072:	83 c4 08             	add    $0x8,%esp
  102075:	5b                   	pop    %ebx
  102076:	c3                   	ret
  102077:	2e 8d b4 26 00 00 00 	lea    %cs:0x0(%esi,%eiz,1),%esi
  10207e:	00 
  10207f:	90                   	nop
  102080:	b8 ff ff ff ff       	mov    $0xffffffff,%eax
  102085:	eb eb                	jmp    102072 <rtl8169_send+0xb2>
  102087:	2e 8d b4 26 00 00 00 	lea    %cs:0x0(%esi,%eiz,1),%esi
  10208e:	00 
  10208f:	90                   	nop

00102090 <r8169_unlock>:
  102090:	0f b7 05 58 d8 14 00 	movzwl 0x14d858,%eax
  102097:	8d 50 50             	lea    0x50(%eax),%edx
  10209a:	b8 c0 ff ff ff       	mov    $0xffffffc0,%eax
  10209f:	ee                   	out    %al,(%dx)
  1020a0:	c3                   	ret
  1020a1:	2e 8d b4 26 00 00 00 	lea    %cs:0x0(%esi,%eiz,1),%esi
  1020a8:	00 
  1020a9:	8d b4 26 00 00 00 00 	lea    0x0(%esi,%eiz,1),%esi

001020b0 <r8169_lock>:
  1020b0:	0f b7 05 58 d8 14 00 	movzwl 0x14d858,%eax
  1020b7:	8d 50 50             	lea    0x50(%eax),%edx
  1020ba:	31 c0                	xor    %eax,%eax
  1020bc:	ee                   	out    %al,(%dx)
  1020bd:	c3                   	ret
  1020be:	66 90                	xchg   %ax,%ax

001020c0 <rtl8169_handler>:
  1020c0:	8b 15 58 d8 14 00    	mov    0x14d858,%edx
  1020c6:	85 d2                	test   %edx,%edx
  1020c8:	0f 84 da 00 00 00    	je     1021a8 <rtl8169_handler+0xe8>
  1020ce:	83 c2 3e             	add    $0x3e,%edx
  1020d1:	66 ed                	in     (%dx),%ax
  1020d3:	66 ef                	out    %ax,(%dx)
  1020d5:	a8 01                	test   $0x1,%al
  1020d7:	0f 84 c3 00 00 00    	je     1021a0 <rtl8169_handler+0xe0>
  1020dd:	a1 a4 d5 14 00       	mov    0x14d5a4,%eax
  1020e2:	8b 15 c4 d7 14 00    	mov    0x14d7c4,%edx
  1020e8:	57                   	push   %edi
  1020e9:	56                   	push   %esi
  1020ea:	89 c1                	mov    %eax,%ecx
  1020ec:	53                   	push   %ebx
  1020ed:	c1 e1 04             	shl    $0x4,%ecx
  1020f0:	01 d1                	add    %edx,%ecx
  1020f2:	8b 19                	mov    (%ecx),%ebx
  1020f4:	85 db                	test   %ebx,%ebx
  1020f6:	0f 88 b4 00 00 00    	js     1021b0 <rtl8169_handler+0xf0>
  1020fc:	be 00 06 00 c0       	mov    $0xc0000600,%esi
  102101:	bb 00 06 00 80       	mov    $0x80000600,%ebx
  102106:	eb 42                	jmp    10214a <rtl8169_handler+0x8a>
  102108:	2e 8d b4 26 00 00 00 	lea    %cs:0x0(%esi,%eiz,1),%esi
  10210f:	00 
  102110:	a1 a4 d5 14 00       	mov    0x14d5a4,%eax
  102115:	89 df                	mov    %ebx,%edi
  102117:	83 f8 3f             	cmp    $0x3f,%eax
  10211a:	89 c1                	mov    %eax,%ecx
  10211c:	0f 44 fe             	cmove  %esi,%edi
  10211f:	c1 e1 04             	shl    $0x4,%ecx
  102122:	83 c0 01             	add    $0x1,%eax
  102125:	01 d1                	add    %edx,%ecx
  102127:	89 39                	mov    %edi,(%ecx)
  102129:	89 c1                	mov    %eax,%ecx
  10212b:	c1 f9 1f             	sar    $0x1f,%ecx
  10212e:	c1 e9 1a             	shr    $0x1a,%ecx
  102131:	01 c8                	add    %ecx,%eax
  102133:	83 e0 3f             	and    $0x3f,%eax
  102136:	29 c8                	sub    %ecx,%eax
  102138:	89 c1                	mov    %eax,%ecx
  10213a:	a3 a4 d5 14 00       	mov    %eax,0x14d5a4
  10213f:	c1 e1 04             	shl    $0x4,%ecx
  102142:	01 d1                	add    %edx,%ecx
  102144:	8b 39                	mov    (%ecx),%edi
  102146:	85 ff                	test   %edi,%edi
  102148:	78 66                	js     1021b0 <rtl8169_handler+0xf0>
  10214a:	8b 09                	mov    (%ecx),%ecx
  10214c:	89 cf                	mov    %ecx,%edi
  10214e:	f7 d7                	not    %edi
  102150:	81 e7 00 00 00 30    	and    $0x30000000,%edi
  102156:	75 b8                	jne    102110 <rtl8169_handler+0x50>
  102158:	89 cf                	mov    %ecx,%edi
  10215a:	81 e7 ff 3f 00 00    	and    $0x3fff,%edi
  102160:	83 ff 04             	cmp    $0x4,%edi
  102163:	76 ab                	jbe    102110 <rtl8169_handler+0x50>
  102165:	83 ec 08             	sub    $0x8,%esp
  102168:	8d 57 fc             	lea    -0x4(%edi),%edx
  10216b:	52                   	push   %edx
  10216c:	ff 34 85 c0 d6 14 00 	push   0x14d6c0(,%eax,4)
  102173:	e8 98 57 00 00       	call   107910 <net_handle_packet>
  102178:	a1 44 d8 14 00       	mov    0x14d844,%eax
  10217d:	83 05 3c d8 14 00 01 	addl   $0x1,0x14d83c
  102184:	83 c4 10             	add    $0x10,%esp
  102187:	8b 15 c4 d7 14 00    	mov    0x14d7c4,%edx
  10218d:	8d 44 07 fc          	lea    -0x4(%edi,%eax,1),%eax
  102191:	a3 44 d8 14 00       	mov    %eax,0x14d844
  102196:	e9 75 ff ff ff       	jmp    102110 <rtl8169_handler+0x50>
  10219b:	2e 8d 74 26 00       	lea    %cs:0x0(%esi,%eiz,1),%esi
  1021a0:	e9 bb 0a 00 00       	jmp    102c60 <apic_send_eoi>
  1021a5:	8d 76 00             	lea    0x0(%esi),%esi
  1021a8:	c3                   	ret
  1021a9:	8d b4 26 00 00 00 00 	lea    0x0(%esi,%eiz,1),%esi
  1021b0:	5b                   	pop    %ebx
  1021b1:	5e                   	pop    %esi
  1021b2:	5f                   	pop    %edi
  1021b3:	e9 a8 0a 00 00       	jmp    102c60 <apic_send_eoi>
  1021b8:	2e 8d b4 26 00 00 00 	lea    %cs:0x0(%esi,%eiz,1),%esi
  1021bf:	00 

001021c0 <rtl8169_init>:
  1021c0:	55                   	push   %ebp
  1021c1:	57                   	push   %edi
  1021c2:	56                   	push   %esi
  1021c3:	53                   	push   %ebx
  1021c4:	83 ec 28             	sub    $0x28,%esp
  1021c7:	8b 74 24 3c          	mov    0x3c(%esp),%esi
  1021cb:	68 10 24 14 00       	push   $0x142410
  1021d0:	e8 ab ed ff ff       	call   100f80 <s_printf>
  1021d5:	89 34 24             	mov    %esi,(%esp)
  1021d8:	e8 f3 f5 ff ff       	call   1017d0 <pci_enable_bus_master>
  1021dd:	8b 46 10             	mov    0x10(%esi),%eax
  1021e0:	c7 04 24 00 00 00 00 	movl   $0x0,(%esp)
  1021e7:	6a 00                	push   $0x0
  1021e9:	6a 00                	push   $0x0
  1021eb:	83 e0 fc             	and    $0xfffffffc,%eax
  1021ee:	68 80 00 00 00       	push   $0x80
  1021f3:	6a 2d                	push   $0x2d
  1021f5:	a3 58 d8 14 00       	mov    %eax,0x14d858
  1021fa:	e8 b1 09 00 00       	call   102bb0 <ioapic_set_gsi_redirect>
  1021ff:	0f b7 05 58 d8 14 00 	movzwl 0x14d858,%eax
  102206:	8d 50 37             	lea    0x37(%eax),%edx
  102209:	b8 10 00 00 00       	mov    $0x10,%eax
  10220e:	ee                   	out    %al,(%dx)
  10220f:	c7 44 24 2c 00 00 00 	movl   $0x0,0x2c(%esp)
  102216:	00 
  102217:	8b 44 24 2c          	mov    0x2c(%esp),%eax
  10221b:	83 c4 20             	add    $0x20,%esp
  10221e:	3d 9f 86 01 00       	cmp    $0x1869f,%eax
  102223:	7e 21                	jle    102246 <rtl8169_init+0x86>
  102225:	eb 24                	jmp    10224b <rtl8169_init+0x8b>
  102227:	2e 8d b4 26 00 00 00 	lea    %cs:0x0(%esi,%eiz,1),%esi
  10222e:	00 
  10222f:	90                   	nop
  102230:	8b 44 24 0c          	mov    0xc(%esp),%eax
  102234:	83 c0 01             	add    $0x1,%eax
  102237:	89 44 24 0c          	mov    %eax,0xc(%esp)
  10223b:	8b 44 24 0c          	mov    0xc(%esp),%eax
  10223f:	3d 9f 86 01 00       	cmp    $0x1869f,%eax
  102244:	7f 05                	jg     10224b <rtl8169_init+0x8b>
  102246:	ec                   	in     (%dx),%al
  102247:	a8 10                	test   $0x10,%al
  102249:	75 e5                	jne    102230 <rtl8169_init+0x70>
  10224b:	83 ec 0c             	sub    $0xc,%esp
  10224e:	31 db                	xor    %ebx,%ebx
  102250:	68 00 04 00 00       	push   $0x400
  102255:	e8 36 3f 00 00       	call   106190 <kmalloc_a>
  10225a:	c7 04 24 00 04 00 00 	movl   $0x400,(%esp)
  102261:	a3 c4 d7 14 00       	mov    %eax,0x14d7c4
  102266:	e8 25 3f 00 00       	call   106190 <kmalloc_a>
  10226b:	83 c4 10             	add    $0x10,%esp
  10226e:	a3 c0 d7 14 00       	mov    %eax,0x14d7c0
  102273:	2e 8d 74 26 00       	lea    %cs:0x0(%esi,%eiz,1),%esi
  102278:	83 ec 0c             	sub    $0xc,%esp
  10227b:	68 00 06 00 00       	push   $0x600
  102280:	e8 ab 3b 00 00       	call   105e30 <kmalloc>
  102285:	89 da                	mov    %ebx,%edx
  102287:	83 c4 10             	add    $0x10,%esp
  10228a:	c1 e2 04             	shl    $0x4,%edx
  10228d:	03 15 c4 d7 14 00    	add    0x14d7c4,%edx
  102293:	89 04 9d c0 d6 14 00 	mov    %eax,0x14d6c0(,%ebx,4)
  10229a:	89 42 08             	mov    %eax,0x8(%edx)
  10229d:	c7 42 0c 00 00 00 00 	movl   $0x0,0xc(%edx)
  1022a4:	83 fb 3f             	cmp    $0x3f,%ebx
  1022a7:	74 0f                	je     1022b8 <rtl8169_init+0xf8>
  1022a9:	c7 02 00 06 00 80    	movl   $0x80000600,(%edx)
  1022af:	83 c3 01             	add    $0x1,%ebx
  1022b2:	eb c4                	jmp    102278 <rtl8169_init+0xb8>
  1022b4:	8d 74 26 00          	lea    0x0(%esi,%eiz,1),%esi
  1022b8:	c7 02 00 06 00 c0    	movl   $0xc0000600,(%edx)
  1022be:	31 db                	xor    %ebx,%ebx
  1022c0:	83 ec 0c             	sub    $0xc,%esp
  1022c3:	68 00 06 00 00       	push   $0x600
  1022c8:	e8 63 3b 00 00       	call   105e30 <kmalloc>
  1022cd:	8b 0d c0 d7 14 00    	mov    0x14d7c0,%ecx
  1022d3:	83 c4 10             	add    $0x10,%esp
  1022d6:	89 04 9d c0 d5 14 00 	mov    %eax,0x14d5c0(,%ebx,4)
  1022dd:	89 d8                	mov    %ebx,%eax
  1022df:	83 c3 01             	add    $0x1,%ebx
  1022e2:	c1 e0 04             	shl    $0x4,%eax
  1022e5:	01 c8                	add    %ecx,%eax
  1022e7:	c7 00 00 00 00 00    	movl   $0x0,(%eax)
  1022ed:	83 fb 40             	cmp    $0x40,%ebx
  1022f0:	75 ce                	jne    1022c0 <rtl8169_init+0x100>
  1022f2:	8b 1d 58 d8 14 00    	mov    0x14d858,%ebx
  1022f8:	b8 c0 ff ff ff       	mov    $0xffffffc0,%eax
  1022fd:	8d 7b 50             	lea    0x50(%ebx),%edi
  102300:	89 fa                	mov    %edi,%edx
  102302:	ee                   	out    %al,(%dx)
  102303:	b8 0c 00 00 00       	mov    $0xc,%eax
  102308:	8d 53 37             	lea    0x37(%ebx),%edx
  10230b:	ee                   	out    %al,(%dx)
  10230c:	b8 00 06 00 00       	mov    $0x600,%eax
  102311:	8d 93 da 00 00 00    	lea    0xda(%ebx),%edx
  102317:	66 ef                	out    %ax,(%dx)
  102319:	b8 3b 00 00 00       	mov    $0x3b,%eax
  10231e:	8d 93 ec 00 00 00    	lea    0xec(%ebx),%edx
  102324:	ee                   	out    %al,(%dx)
  102325:	b8 00 07 00 03       	mov    $0x3000700,%eax
  10232a:	8d 53 40             	lea    0x40(%ebx),%edx
  10232d:	ef                   	out    %eax,(%dx)
  10232e:	b8 0f e7 00 00       	mov    $0xe70f,%eax
  102333:	8d 53 44             	lea    0x44(%ebx),%edx
  102336:	ef                   	out    %eax,(%dx)
  102337:	a1 c4 d7 14 00       	mov    0x14d7c4,%eax
  10233c:	8d 93 e4 00 00 00    	lea    0xe4(%ebx),%edx
  102342:	ef                   	out    %eax,(%dx)
  102343:	31 ed                	xor    %ebp,%ebp
  102345:	8d 93 e8 00 00 00    	lea    0xe8(%ebx),%edx
  10234b:	89 e8                	mov    %ebp,%eax
  10234d:	ef                   	out    %eax,(%dx)
  10234e:	8d 53 20             	lea    0x20(%ebx),%edx
  102351:	89 c8                	mov    %ecx,%eax
  102353:	ef                   	out    %eax,(%dx)
  102354:	8d 53 24             	lea    0x24(%ebx),%edx
  102357:	89 e8                	mov    %ebp,%eax
  102359:	ef                   	out    %eax,(%dx)
  10235a:	b8 05 00 00 00       	mov    $0x5,%eax
  10235f:	8d 53 3c             	lea    0x3c(%ebx),%edx
  102362:	66 ef                	out    %ax,(%dx)
  102364:	31 c0                	xor    %eax,%eax
  102366:	89 fa                	mov    %edi,%edx
  102368:	ee                   	out    %al,(%dx)
  102369:	83 ec 04             	sub    $0x4,%esp
  10236c:	6a 78                	push   $0x78
  10236e:	6a 00                	push   $0x0
  102370:	68 e0 d7 14 00       	push   $0x14d7e0
  102375:	e8 86 39 00 00       	call   105d00 <memset>
  10237a:	58                   	pop    %eax
  10237b:	5a                   	pop    %edx
  10237c:	68 f2 2d 14 00       	push   $0x142df2
  102381:	68 e0 d7 14 00       	push   $0x14d7e0
  102386:	e8 35 35 00 00       	call   1058c0 <strcpy>
  10238b:	0f b7 1d 58 d8 14 00 	movzwl 0x14d858,%ebx
  102392:	83 c4 10             	add    $0x10,%esp
  102395:	31 c9                	xor    %ecx,%ecx
  102397:	2e 8d b4 26 00 00 00 	lea    %cs:0x0(%esi,%eiz,1),%esi
  10239e:	00 
  10239f:	90                   	nop
  1023a0:	8d 14 0b             	lea    (%ebx,%ecx,1),%edx
  1023a3:	ec                   	in     (%dx),%al
  1023a4:	88 81 f0 d7 14 00    	mov    %al,0x14d7f0(%ecx)
  1023aa:	83 c1 01             	add    $0x1,%ecx
  1023ad:	83 f9 06             	cmp    $0x6,%ecx
  1023b0:	75 ee                	jne    1023a0 <rtl8169_init+0x1e0>
  1023b2:	83 ec 0c             	sub    $0xc,%esp
  1023b5:	89 35 50 d8 14 00    	mov    %esi,0x14d850
  1023bb:	68 e0 d7 14 00       	push   $0x14d7e0
  1023c0:	c7 05 4c d8 14 00 c0 	movl   $0x101fc0,0x14d84c
  1023c7:	1f 10 00 
  1023ca:	c7 05 34 d8 14 00 01 	movl   $0x1,0x14d834
  1023d1:	00 00 00 
  1023d4:	e8 d7 51 00 00       	call   1075b0 <net_register_interface>
  1023d9:	c7 04 24 30 24 14 00 	movl   $0x142430,(%esp)
  1023e0:	e8 9b eb ff ff       	call   100f80 <s_printf>
  1023e5:	83 c4 2c             	add    $0x2c,%esp
  1023e8:	5b                   	pop    %ebx
  1023e9:	5e                   	pop    %esi
  1023ea:	5f                   	pop    %edi
  1023eb:	5d                   	pop    %ebp
  1023ec:	e9 bf 58 00 00       	jmp    107cb0 <net_dhcp_discover>
  1023f1:	66 90                	xchg   %ax,%ax
  1023f3:	66 90                	xchg   %ax,%ax
  1023f5:	66 90                	xchg   %ax,%ax
  1023f7:	66 90                	xchg   %ax,%ax
  1023f9:	66 90                	xchg   %ax,%ax
  1023fb:	66 90                	xchg   %ax,%ax
  1023fd:	66 90                	xchg   %ax,%ax
  1023ff:	90                   	nop

00102400 <net_init_realtek_8811au>:
  102400:	53                   	push   %ebx
  102401:	bb 0a 00 00 00       	mov    $0xa,%ebx
  102406:	83 ec 14             	sub    $0x14,%esp
  102409:	68 5c 24 14 00       	push   $0x14245c
  10240e:	e8 0d e4 ff ff       	call   100820 <vga_print>
  102413:	c7 04 24 98 24 14 00 	movl   $0x142498,(%esp)
  10241a:	e8 61 eb ff ff       	call   100f80 <s_printf>
  10241f:	c7 04 24 14 00 00 00 	movl   $0x14,(%esp)
  102426:	e8 15 2c 00 00       	call   105040 <sys_delay>
  10242b:	c7 04 24 d0 24 14 00 	movl   $0x1424d0,(%esp)
  102432:	e8 49 eb ff ff       	call   100f80 <s_printf>
  102437:	c7 04 24 fc 24 14 00 	movl   $0x1424fc,(%esp)
  10243e:	e8 3d eb ff ff       	call   100f80 <s_printf>
  102443:	c7 04 24 28 25 14 00 	movl   $0x142528,(%esp)
  10244a:	e8 d1 e3 ff ff       	call   100820 <vga_print>
  10244f:	83 c4 10             	add    $0x10,%esp
  102452:	8d b6 00 00 00 00    	lea    0x0(%esi),%esi
  102458:	83 ec 0c             	sub    $0xc,%esp
  10245b:	6a 05                	push   $0x5
  10245d:	e8 de 2b 00 00       	call   105040 <sys_delay>
  102462:	83 c4 10             	add    $0x10,%esp
  102465:	83 eb 01             	sub    $0x1,%ebx
  102468:	75 ee                	jne    102458 <net_init_realtek_8811au+0x58>
  10246a:	83 ec 0c             	sub    $0xc,%esp
  10246d:	68 f7 2d 14 00       	push   $0x142df7
  102472:	e8 a9 e3 ff ff       	call   100820 <vga_print>
  102477:	c7 04 24 58 25 14 00 	movl   $0x142558,(%esp)
  10247e:	e8 fd ea ff ff       	call   100f80 <s_printf>
  102483:	c7 04 24 fe 2d 14 00 	movl   $0x142dfe,(%esp)
  10248a:	e8 91 e3 ff ff       	call   100820 <vga_print>
  10248f:	c7 04 24 14 00 00 00 	movl   $0x14,(%esp)
  102496:	e8 a5 2b 00 00       	call   105040 <sys_delay>
  10249b:	c7 04 24 80 25 14 00 	movl   $0x142580,(%esp)
  1024a2:	e8 79 e3 ff ff       	call   100820 <vga_print>
  1024a7:	c7 04 24 1e 00 00 00 	movl   $0x1e,(%esp)
  1024ae:	e8 8d 2b 00 00       	call   105040 <sys_delay>
  1024b3:	c7 04 24 a8 25 14 00 	movl   $0x1425a8,(%esp)
  1024ba:	e8 61 e3 ff ff       	call   100820 <vga_print>
  1024bf:	c7 04 24 cc 25 14 00 	movl   $0x1425cc,(%esp)
  1024c6:	e8 55 e3 ff ff       	call   100820 <vga_print>
  1024cb:	83 c4 18             	add    $0x18,%esp
  1024ce:	5b                   	pop    %ebx
  1024cf:	c3                   	ret

001024d0 <xhci_scan_ports>:
  1024d0:	55                   	push   %ebp
  1024d1:	57                   	push   %edi
  1024d2:	56                   	push   %esi
  1024d3:	53                   	push   %ebx
  1024d4:	83 ec 1c             	sub    $0x1c,%esp
  1024d7:	8b 35 60 d8 14 00    	mov    0x14d860,%esi
  1024dd:	85 f6                	test   %esi,%esi
  1024df:	0f 84 82 00 00 00    	je     102567 <xhci_scan_ports+0x97>
  1024e5:	8b 0d 5c d8 14 00    	mov    0x14d85c,%ecx
  1024eb:	85 c9                	test   %ecx,%ecx
  1024ed:	74 78                	je     102567 <xhci_scan_ports+0x97>
  1024ef:	81 c6 00 04 00 00    	add    $0x400,%esi
  1024f5:	31 db                	xor    %ebx,%ebx
  1024f7:	8d 7c 24 0c          	lea    0xc(%esp),%edi
  1024fb:	eb 0e                	jmp    10250b <xhci_scan_ports+0x3b>
  1024fd:	8d 76 00             	lea    0x0(%esi),%esi
  102500:	83 c6 10             	add    $0x10,%esi
  102503:	3b 1d 5c d8 14 00    	cmp    0x14d85c,%ebx
  102509:	73 5c                	jae    102567 <xhci_scan_ports+0x97>
  10250b:	8b 06                	mov    (%esi),%eax
  10250d:	89 dd                	mov    %ebx,%ebp
  10250f:	83 c3 01             	add    $0x1,%ebx
  102512:	a8 01                	test   $0x1,%al
  102514:	74 ea                	je     102500 <xhci_scan_ports+0x30>
  102516:	83 ec 0c             	sub    $0xc,%esp
  102519:	68 f0 25 14 00       	push   $0x1425f0
  10251e:	e8 5d ea ff ff       	call   100f80 <s_printf>
  102523:	58                   	pop    %eax
  102524:	5a                   	pop    %edx
  102525:	57                   	push   %edi
  102526:	53                   	push   %ebx
  102527:	e8 04 36 00 00       	call   105b30 <int_to_str>
  10252c:	89 3c 24             	mov    %edi,(%esp)
  10252f:	e8 4c ea ff ff       	call   100f80 <s_printf>
  102534:	c7 04 24 a4 30 14 00 	movl   $0x1430a4,(%esp)
  10253b:	e8 40 ea ff ff       	call   100f80 <s_printf>
  102540:	83 c4 10             	add    $0x10,%esp
  102543:	85 ed                	test   %ebp,%ebp
  102545:	75 29                	jne    102570 <xhci_scan_ports+0xa0>
  102547:	83 ec 08             	sub    $0x8,%esp
  10254a:	83 c6 10             	add    $0x10,%esi
  10254d:	68 11 c8 00 00       	push   $0xc811
  102552:	68 da 0b 00 00       	push   $0xbda
  102557:	e8 e4 00 00 00       	call   102640 <usb_register_device>
  10255c:	83 c4 10             	add    $0x10,%esp
  10255f:	3b 1d 5c d8 14 00    	cmp    0x14d85c,%ebx
  102565:	72 a4                	jb     10250b <xhci_scan_ports+0x3b>
  102567:	83 c4 1c             	add    $0x1c,%esp
  10256a:	5b                   	pop    %ebx
  10256b:	5e                   	pop    %esi
  10256c:	5f                   	pop    %edi
  10256d:	5d                   	pop    %ebp
  10256e:	c3                   	ret
  10256f:	90                   	nop
  102570:	83 ec 08             	sub    $0x8,%esp
  102573:	6a 01                	push   $0x1
  102575:	68 86 80 00 00       	push   $0x8086
  10257a:	e8 c1 00 00 00       	call   102640 <usb_register_device>
  10257f:	83 c4 10             	add    $0x10,%esp
  102582:	e9 79 ff ff ff       	jmp    102500 <xhci_scan_ports+0x30>
  102587:	2e 8d b4 26 00 00 00 	lea    %cs:0x0(%esi,%eiz,1),%esi
  10258e:	00 
  10258f:	90                   	nop

00102590 <xhci_controller_init>:
  102590:	56                   	push   %esi
  102591:	53                   	push   %ebx
  102592:	83 ec 20             	sub    $0x20,%esp
  102595:	8b 44 24 2c          	mov    0x2c(%esp),%eax
  102599:	8b 58 10             	mov    0x10(%eax),%ebx
  10259c:	83 e3 f0             	and    $0xfffffff0,%ebx
  10259f:	0f b6 03             	movzbl (%ebx),%eax
  1025a2:	01 d8                	add    %ebx,%eax
  1025a4:	a3 60 d8 14 00       	mov    %eax,0x14d860
  1025a9:	8b 43 04             	mov    0x4(%ebx),%eax
  1025ac:	c1 e8 18             	shr    $0x18,%eax
  1025af:	a3 5c d8 14 00       	mov    %eax,0x14d85c
  1025b4:	68 12 2e 14 00       	push   $0x142e12
  1025b9:	e8 c2 e9 ff ff       	call   100f80 <s_printf>
  1025be:	58                   	pop    %eax
  1025bf:	5a                   	pop    %edx
  1025c0:	8d 74 24 08          	lea    0x8(%esp),%esi
  1025c4:	56                   	push   %esi
  1025c5:	53                   	push   %ebx
  1025c6:	e8 65 35 00 00       	call   105b30 <int_to_str>
  1025cb:	89 34 24             	mov    %esi,(%esp)
  1025ce:	e8 ad e9 ff ff       	call   100f80 <s_printf>
  1025d3:	c7 04 24 27 2e 14 00 	movl   $0x142e27,(%esp)
  1025da:	e8 a1 e9 ff ff       	call   100f80 <s_printf>
  1025df:	59                   	pop    %ecx
  1025e0:	5b                   	pop    %ebx
  1025e1:	56                   	push   %esi
  1025e2:	ff 35 5c d8 14 00    	push   0x14d85c
  1025e8:	e8 43 35 00 00       	call   105b30 <int_to_str>
  1025ed:	89 34 24             	mov    %esi,(%esp)
  1025f0:	e8 8b e9 ff ff       	call   100f80 <s_printf>
  1025f5:	c7 04 24 a4 30 14 00 	movl   $0x1430a4,(%esp)
  1025fc:	e8 7f e9 ff ff       	call   100f80 <s_printf>
  102601:	8b 15 60 d8 14 00    	mov    0x14d860,%edx
  102607:	89 f4                	mov    %esi,%esp
  102609:	8b 02                	mov    (%edx),%eax
  10260b:	a8 01                	test   $0x1,%al
  10260d:	74 08                	je     102617 <xhci_controller_init+0x87>
  10260f:	83 e0 fe             	and    $0xfffffffe,%eax
  102612:	89 02                	mov    %eax,(%edx)
  102614:	8b 42 04             	mov    0x4(%edx),%eax
  102617:	c7 02 02 00 00 00    	movl   $0x2,(%edx)
  10261d:	8d 76 00             	lea    0x0(%esi),%esi
  102620:	8b 02                	mov    (%edx),%eax
  102622:	a8 02                	test   $0x2,%al
  102624:	75 fa                	jne    102620 <xhci_controller_init+0x90>
  102626:	83 ec 0c             	sub    $0xc,%esp
  102629:	68 10 26 14 00       	push   $0x142610
  10262e:	e8 4d e9 ff ff       	call   100f80 <s_printf>
  102633:	e8 98 fe ff ff       	call   1024d0 <xhci_scan_ports>
  102638:	83 c4 24             	add    $0x24,%esp
  10263b:	5b                   	pop    %ebx
  10263c:	5e                   	pop    %esi
  10263d:	c3                   	ret
  10263e:	66 90                	xchg   %ax,%ax

00102640 <usb_register_device>:
  102640:	55                   	push   %ebp
  102641:	57                   	push   %edi
  102642:	56                   	push   %esi
  102643:	53                   	push   %ebx
  102644:	83 ec 2c             	sub    $0x2c,%esp
  102647:	8b 1d 80 d8 14 00    	mov    0x14d880,%ebx
  10264d:	8b 7c 24 40          	mov    0x40(%esp),%edi
  102651:	8b 74 24 44          	mov    0x44(%esp),%esi
  102655:	83 fb 07             	cmp    $0x7,%ebx
  102658:	7e 0e                	jle    102668 <usb_register_device+0x28>
  10265a:	83 c4 2c             	add    $0x2c,%esp
  10265d:	5b                   	pop    %ebx
  10265e:	5e                   	pop    %esi
  10265f:	5f                   	pop    %edi
  102660:	5d                   	pop    %ebp
  102661:	c3                   	ret
  102662:	8d b6 00 00 00 00    	lea    0x0(%esi),%esi
  102668:	8d 14 1b             	lea    (%ebx,%ebx,1),%edx
  10266b:	83 ec 0c             	sub    $0xc,%esp
  10266e:	8d 4b 01             	lea    0x1(%ebx),%ecx
  102671:	89 54 24 18          	mov    %edx,0x18(%esp)
  102675:	8d 04 1a             	lea    (%edx,%ebx,1),%eax
  102678:	68 33 2e 14 00       	push   $0x142e33
  10267d:	c1 e0 02             	shl    $0x2,%eax
  102680:	89 88 a8 d8 14 00    	mov    %ecx,0x14d8a8(%eax)
  102686:	89 0d 80 d8 14 00    	mov    %ecx,0x14d880
  10268c:	66 89 b8 a0 d8 14 00 	mov    %di,0x14d8a0(%eax)
  102693:	66 89 b0 a2 d8 14 00 	mov    %si,0x14d8a2(%eax)
  10269a:	e8 e1 e8 ff ff       	call   100f80 <s_printf>
  10269f:	58                   	pop    %eax
  1026a0:	5a                   	pop    %edx
  1026a1:	0f b7 c7             	movzwl %di,%eax
  1026a4:	8d 6c 24 20          	lea    0x20(%esp),%ebp
  1026a8:	55                   	push   %ebp
  1026a9:	50                   	push   %eax
  1026aa:	e8 81 34 00 00       	call   105b30 <int_to_str>
  1026af:	89 2c 24             	mov    %ebp,(%esp)
  1026b2:	e8 c9 e8 ff ff       	call   100f80 <s_printf>
  1026b7:	c7 04 24 51 2e 14 00 	movl   $0x142e51,(%esp)
  1026be:	e8 bd e8 ff ff       	call   100f80 <s_printf>
  1026c3:	59                   	pop    %ecx
  1026c4:	58                   	pop    %eax
  1026c5:	0f b7 c6             	movzwl %si,%eax
  1026c8:	55                   	push   %ebp
  1026c9:	50                   	push   %eax
  1026ca:	e8 61 34 00 00       	call   105b30 <int_to_str>
  1026cf:	89 2c 24             	mov    %ebp,(%esp)
  1026d2:	e8 a9 e8 ff ff       	call   100f80 <s_printf>
  1026d7:	c7 04 24 a4 30 14 00 	movl   $0x1430a4,(%esp)
  1026de:	e8 9d e8 ff ff       	call   100f80 <s_printf>
  1026e3:	83 c4 10             	add    $0x10,%esp
  1026e6:	66 81 ff da 0b       	cmp    $0xbda,%di
  1026eb:	0f 85 69 ff ff ff    	jne    10265a <usb_register_device+0x1a>
  1026f1:	66 81 fe 11 c8       	cmp    $0xc811,%si
  1026f6:	8b 54 24 0c          	mov    0xc(%esp),%edx
  1026fa:	74 3c                	je     102738 <usb_register_device+0xf8>
  1026fc:	66 81 ff da 0b       	cmp    $0xbda,%di
  102701:	0f 85 53 ff ff ff    	jne    10265a <usb_register_device+0x1a>
  102707:	66 81 c6 8a 7e       	add    $0x7e8a,%si
  10270c:	66 f7 c6 fd ff       	test   $0xfffd,%si
  102711:	0f 85 43 ff ff ff    	jne    10265a <usb_register_device+0x1a>
  102717:	01 da                	add    %ebx,%edx
  102719:	83 ec 0c             	sub    $0xc,%esp
  10271c:	8d 04 95 a0 d8 14 00 	lea    0x14d8a0(,%edx,4),%eax
  102723:	50                   	push   %eax
  102724:	e8 c7 00 00 00       	call   1027f0 <wifi_rtl8188_probe>
  102729:	83 c4 10             	add    $0x10,%esp
  10272c:	e9 29 ff ff ff       	jmp    10265a <usb_register_device+0x1a>
  102731:	8d b4 26 00 00 00 00 	lea    0x0(%esi,%eiz,1),%esi
  102738:	e8 c3 fc ff ff       	call   102400 <net_init_realtek_8811au>
  10273d:	e9 18 ff ff ff       	jmp    10265a <usb_register_device+0x1a>
  102742:	2e 8d b4 26 00 00 00 	lea    %cs:0x0(%esi,%eiz,1),%esi
  102749:	00 
  10274a:	8d b6 00 00 00 00    	lea    0x0(%esi),%esi

00102750 <usb_xhci_init>:
  102750:	83 ec 0c             	sub    $0xc,%esp
  102753:	8b 44 24 10          	mov    0x10(%esp),%eax
  102757:	8b 48 10             	mov    0x10(%eax),%ecx
  10275a:	85 c9                	test   %ecx,%ecx
  10275c:	74 2d                	je     10278b <usb_xhci_init+0x3b>
  10275e:	83 ec 0c             	sub    $0xc,%esp
  102761:	68 57 2e 14 00       	push   $0x142e57
  102766:	e8 15 e8 ff ff       	call   100f80 <s_printf>
  10276b:	c7 04 24 75 2e 14 00 	movl   $0x142e75,(%esp)
  102772:	e8 09 e8 ff ff       	call   100f80 <s_printf>
  102777:	58                   	pop    %eax
  102778:	5a                   	pop    %edx
  102779:	68 11 c8 00 00       	push   $0xc811
  10277e:	68 da 0b 00 00       	push   $0xbda
  102783:	e8 b8 fe ff ff       	call   102640 <usb_register_device>
  102788:	83 c4 10             	add    $0x10,%esp
  10278b:	83 c4 0c             	add    $0xc,%esp
  10278e:	c3                   	ret
  10278f:	90                   	nop

00102790 <rtl_write_reg>:
  102790:	c3                   	ret
  102791:	2e 8d b4 26 00 00 00 	lea    %cs:0x0(%esi,%eiz,1),%esi
  102798:	00 
  102799:	8d b4 26 00 00 00 00 	lea    0x0(%esi,%eiz,1),%esi

001027a0 <rtl_download_firmware>:
  1027a0:	53                   	push   %ebx
  1027a1:	bb 0a 00 00 00       	mov    $0xa,%ebx
  1027a6:	83 ec 14             	sub    $0x14,%esp
  1027a9:	68 34 26 14 00       	push   $0x142634
  1027ae:	e8 6d e0 ff ff       	call   100820 <vga_print>
  1027b3:	83 c4 10             	add    $0x10,%esp
  1027b6:	2e 8d b4 26 00 00 00 	lea    %cs:0x0(%esi,%eiz,1),%esi
  1027bd:	00 
  1027be:	66 90                	xchg   %ax,%ax
  1027c0:	83 ec 0c             	sub    $0xc,%esp
  1027c3:	6a 05                	push   $0x5
  1027c5:	e8 76 28 00 00       	call   105040 <sys_delay>
  1027ca:	83 c4 10             	add    $0x10,%esp
  1027cd:	83 eb 01             	sub    $0x1,%ebx
  1027d0:	75 ee                	jne    1027c0 <rtl_download_firmware+0x20>
  1027d2:	83 ec 0c             	sub    $0xc,%esp
  1027d5:	68 70 26 14 00       	push   $0x142670
  1027da:	e8 41 e0 ff ff       	call   100820 <vga_print>
  1027df:	83 c4 18             	add    $0x18,%esp
  1027e2:	5b                   	pop    %ebx
  1027e3:	c3                   	ret
  1027e4:	2e 8d b4 26 00 00 00 	lea    %cs:0x0(%esi,%eiz,1),%esi
  1027eb:	00 
  1027ec:	8d 74 26 00          	lea    0x0(%esi,%eiz,1),%esi

001027f0 <wifi_rtl8188_probe>:
  1027f0:	53                   	push   %ebx
  1027f1:	bb 0a 00 00 00       	mov    $0xa,%ebx
  1027f6:	83 ec 14             	sub    $0x14,%esp
  1027f9:	c7 05 0c d9 14 00 00 	movl   $0x0,0x14d90c
  102800:	00 00 00 
  102803:	8b 44 24 1c          	mov    0x1c(%esp),%eax
  102807:	6a 0a                	push   $0xa
  102809:	a3 00 d9 14 00       	mov    %eax,0x14d900
  10280e:	e8 2d 28 00 00       	call   105040 <sys_delay>
  102813:	c7 04 24 34 26 14 00 	movl   $0x142634,(%esp)
  10281a:	e8 01 e0 ff ff       	call   100820 <vga_print>
  10281f:	83 c4 10             	add    $0x10,%esp
  102822:	8d b6 00 00 00 00    	lea    0x0(%esi),%esi
  102828:	83 ec 0c             	sub    $0xc,%esp
  10282b:	6a 05                	push   $0x5
  10282d:	e8 0e 28 00 00       	call   105040 <sys_delay>
  102832:	83 c4 10             	add    $0x10,%esp
  102835:	83 eb 01             	sub    $0x1,%ebx
  102838:	75 ee                	jne    102828 <wifi_rtl8188_probe+0x38>
  10283a:	83 ec 0c             	sub    $0xc,%esp
  10283d:	68 70 26 14 00       	push   $0x142670
  102842:	e8 d9 df ff ff       	call   100820 <vga_print>
  102847:	c7 04 24 a0 26 14 00 	movl   $0x1426a0,(%esp)
  10284e:	e8 cd df ff ff       	call   100820 <vga_print>
  102853:	c7 04 24 14 00 00 00 	movl   $0x14,(%esp)
  10285a:	e8 e1 27 00 00       	call   105040 <sys_delay>
  10285f:	c7 04 24 c8 26 14 00 	movl   $0x1426c8,(%esp)
  102866:	e8 15 e7 ff ff       	call   100f80 <s_printf>
  10286b:	c7 04 24 fc 26 14 00 	movl   $0x1426fc,(%esp)
  102872:	e8 09 e7 ff ff       	call   100f80 <s_printf>
  102877:	c7 04 24 30 27 14 00 	movl   $0x142730,(%esp)
  10287e:	e8 9d df ff ff       	call   100820 <vga_print>
  102883:	c7 04 24 1e 00 00 00 	movl   $0x1e,(%esp)
  10288a:	e8 b1 27 00 00       	call   105040 <sys_delay>
  10288f:	58                   	pop    %eax
  102890:	5a                   	pop    %edx
  102891:	68 8f 2e 14 00       	push   $0x142e8f
  102896:	68 10 d9 14 00       	push   $0x14d910
  10289b:	c7 05 0c d9 14 00 01 	movl   $0x1,0x14d90c
  1028a2:	00 00 00 
  1028a5:	e8 16 30 00 00       	call   1058c0 <strcpy>
  1028aa:	c7 04 24 5c 27 14 00 	movl   $0x14275c,(%esp)
  1028b1:	e8 6a df ff ff       	call   100820 <vga_print>
  1028b6:	c7 44 24 20 9b 2e 14 	movl   $0x142e9b,0x20(%esp)
  1028bd:	00 
  1028be:	83 c4 18             	add    $0x18,%esp
  1028c1:	5b                   	pop    %ebx
  1028c2:	e9 b9 e6 ff ff       	jmp    100f80 <s_printf>
  1028c7:	66 90                	xchg   %ax,%ax
  1028c9:	66 90                	xchg   %ax,%ax
  1028cb:	66 90                	xchg   %ax,%ax
  1028cd:	66 90                	xchg   %ax,%ax
  1028cf:	90                   	nop

001028d0 <rtc_get_update_in_progress_flag>:
  1028d0:	b8 0a 00 00 00       	mov    $0xa,%eax
  1028d5:	e6 70                	out    %al,$0x70
  1028d7:	e4 71                	in     $0x71,%al
  1028d9:	25 80 00 00 00       	and    $0x80,%eax
  1028de:	c3                   	ret
  1028df:	90                   	nop

001028e0 <rtc_get_register>:
  1028e0:	8b 44 24 04          	mov    0x4(%esp),%eax
  1028e4:	e6 70                	out    %al,$0x70
  1028e6:	e4 71                	in     $0x71,%al
  1028e8:	c3                   	ret
  1028e9:	8d b4 26 00 00 00 00 	lea    0x0(%esi,%eiz,1),%esi

001028f0 <bcd2bin>:
  1028f0:	8b 4c 24 04          	mov    0x4(%esp),%ecx
  1028f4:	0f b6 d1             	movzbl %cl,%edx
  1028f7:	83 e1 0f             	and    $0xf,%ecx
  1028fa:	89 d0                	mov    %edx,%eax
  1028fc:	c1 fa 03             	sar    $0x3,%edx
  1028ff:	d1 f8                	sar    $1,%eax
  102901:	83 e2 1e             	and    $0x1e,%edx
  102904:	83 e0 78             	and    $0x78,%eax
  102907:	01 d0                	add    %edx,%eax
  102909:	01 c8                	add    %ecx,%eax
  10290b:	c3                   	ret
  10290c:	8d 74 26 00          	lea    0x0(%esi,%eiz,1),%esi

00102910 <rtc_read_time>:
  102910:	57                   	push   %edi
  102911:	ba 0a 00 00 00       	mov    $0xa,%edx
  102916:	56                   	push   %esi
  102917:	53                   	push   %ebx
  102918:	2e 8d b4 26 00 00 00 	lea    %cs:0x0(%esi,%eiz,1),%esi
  10291f:	00 
  102920:	89 d0                	mov    %edx,%eax
  102922:	e6 70                	out    %al,$0x70
  102924:	e4 71                	in     $0x71,%al
  102926:	84 c0                	test   %al,%al
  102928:	78 f6                	js     102920 <rtc_read_time+0x10>
  10292a:	31 c0                	xor    %eax,%eax
  10292c:	e6 70                	out    %al,$0x70
  10292e:	e4 71                	in     $0x71,%al
  102930:	89 c3                	mov    %eax,%ebx
  102932:	b8 02 00 00 00       	mov    $0x2,%eax
  102937:	e6 70                	out    %al,$0x70
  102939:	e4 71                	in     $0x71,%al
  10293b:	89 c1                	mov    %eax,%ecx
  10293d:	b8 04 00 00 00       	mov    $0x4,%eax
  102942:	e6 70                	out    %al,$0x70
  102944:	e4 71                	in     $0x71,%al
  102946:	89 c2                	mov    %eax,%edx
  102948:	b8 0b 00 00 00       	mov    $0xb,%eax
  10294d:	e6 70                	out    %al,$0x70
  10294f:	e4 71                	in     $0x71,%al
  102951:	a8 04                	test   $0x4,%al
  102953:	75 45                	jne    10299a <rtc_read_time+0x8a>
  102955:	0f b6 f3             	movzbl %bl,%esi
  102958:	83 e3 0f             	and    $0xf,%ebx
  10295b:	89 f7                	mov    %esi,%edi
  10295d:	c1 fe 03             	sar    $0x3,%esi
  102960:	d1 ff                	sar    $1,%edi
  102962:	83 e6 1e             	and    $0x1e,%esi
  102965:	83 e7 78             	and    $0x78,%edi
  102968:	01 f7                	add    %esi,%edi
  10296a:	0f b6 f1             	movzbl %cl,%esi
  10296d:	83 e1 0f             	and    $0xf,%ecx
  102970:	01 fb                	add    %edi,%ebx
  102972:	89 f7                	mov    %esi,%edi
  102974:	c1 fe 03             	sar    $0x3,%esi
  102977:	d1 ff                	sar    $1,%edi
  102979:	83 e6 1e             	and    $0x1e,%esi
  10297c:	83 e7 78             	and    $0x78,%edi
  10297f:	01 f7                	add    %esi,%edi
  102981:	0f b6 f2             	movzbl %dl,%esi
  102984:	83 e2 0f             	and    $0xf,%edx
  102987:	01 f9                	add    %edi,%ecx
  102989:	89 f7                	mov    %esi,%edi
  10298b:	c1 fe 03             	sar    $0x3,%esi
  10298e:	d1 ff                	sar    $1,%edi
  102990:	83 e6 1e             	and    $0x1e,%esi
  102993:	83 e7 78             	and    $0x78,%edi
  102996:	01 f7                	add    %esi,%edi
  102998:	01 fa                	add    %edi,%edx
  10299a:	a8 02                	test   $0x2,%al
  10299c:	75 04                	jne    1029a2 <rtc_read_time+0x92>
  10299e:	84 d2                	test   %dl,%dl
  1029a0:	78 26                	js     1029c8 <rtc_read_time+0xb8>
  1029a2:	0f b6 d2             	movzbl %dl,%edx
  1029a5:	8b 44 24 18          	mov    0x18(%esp),%eax
  1029a9:	0f b6 db             	movzbl %bl,%ebx
  1029ac:	0f b6 c9             	movzbl %cl,%ecx
  1029af:	89 18                	mov    %ebx,(%eax)
  1029b1:	8b 44 24 14          	mov    0x14(%esp),%eax
  1029b5:	89 08                	mov    %ecx,(%eax)
  1029b7:	8b 44 24 10          	mov    0x10(%esp),%eax
  1029bb:	89 10                	mov    %edx,(%eax)
  1029bd:	5b                   	pop    %ebx
  1029be:	5e                   	pop    %esi
  1029bf:	5f                   	pop    %edi
  1029c0:	c3                   	ret
  1029c1:	8d b4 26 00 00 00 00 	lea    0x0(%esi,%eiz,1),%esi
  1029c8:	83 e2 7f             	and    $0x7f,%edx
  1029cb:	b8 ab aa aa aa       	mov    $0xaaaaaaab,%eax
  1029d0:	83 c2 0c             	add    $0xc,%edx
  1029d3:	0f b6 f2             	movzbl %dl,%esi
  1029d6:	f7 e6                	mul    %esi
  1029d8:	c1 ea 04             	shr    $0x4,%edx
  1029db:	8d 04 52             	lea    (%edx,%edx,2),%eax
  1029de:	c1 e0 03             	shl    $0x3,%eax
  1029e1:	29 c6                	sub    %eax,%esi
  1029e3:	89 f2                	mov    %esi,%edx
  1029e5:	eb be                	jmp    1029a5 <rtc_read_time+0x95>
  1029e7:	66 90                	xchg   %ax,%ax
  1029e9:	66 90                	xchg   %ax,%ax
  1029eb:	66 90                	xchg   %ax,%ax
  1029ed:	66 90                	xchg   %ax,%ax
  1029ef:	90                   	nop

001029f0 <sb16_wait_write>:
  1029f0:	b9 e8 03 00 00       	mov    $0x3e8,%ecx
  1029f5:	ba 2c 02 00 00       	mov    $0x22c,%edx
  1029fa:	eb 09                	jmp    102a05 <sb16_wait_write+0x15>
  1029fc:	8d 74 26 00          	lea    0x0(%esi,%eiz,1),%esi
  102a00:	83 e9 01             	sub    $0x1,%ecx
  102a03:	74 0b                	je     102a10 <sb16_wait_write+0x20>
  102a05:	ec                   	in     (%dx),%al
  102a06:	84 c0                	test   %al,%al
  102a08:	78 f6                	js     102a00 <sb16_wait_write+0x10>
  102a0a:	b8 01 00 00 00       	mov    $0x1,%eax
  102a0f:	c3                   	ret
  102a10:	31 c0                	xor    %eax,%eax
  102a12:	c3                   	ret
  102a13:	2e 8d b4 26 00 00 00 	lea    %cs:0x0(%esi,%eiz,1),%esi
  102a1a:	00 
  102a1b:	2e 8d 74 26 00       	lea    %cs:0x0(%esi,%eiz,1),%esi

00102a20 <sb16_write>:
  102a20:	53                   	push   %ebx
  102a21:	b9 e8 03 00 00       	mov    $0x3e8,%ecx
  102a26:	0f b6 5c 24 08       	movzbl 0x8(%esp),%ebx
  102a2b:	ba 2c 02 00 00       	mov    $0x22c,%edx
  102a30:	eb 0b                	jmp    102a3d <sb16_write+0x1d>
  102a32:	8d b6 00 00 00 00    	lea    0x0(%esi),%esi
  102a38:	83 e9 01             	sub    $0x1,%ecx
  102a3b:	74 08                	je     102a45 <sb16_write+0x25>
  102a3d:	ec                   	in     (%dx),%al
  102a3e:	84 c0                	test   %al,%al
  102a40:	78 f6                	js     102a38 <sb16_write+0x18>
  102a42:	89 d8                	mov    %ebx,%eax
  102a44:	ee                   	out    %al,(%dx)
  102a45:	5b                   	pop    %ebx
  102a46:	c3                   	ret
  102a47:	2e 8d b4 26 00 00 00 	lea    %cs:0x0(%esi,%eiz,1),%esi
  102a4e:	00 
  102a4f:	90                   	nop

00102a50 <sb16_init>:
  102a50:	b8 01 00 00 00       	mov    $0x1,%eax
  102a55:	ba 26 02 00 00       	mov    $0x226,%edx
  102a5a:	ee                   	out    %al,(%dx)
  102a5b:	b8 64 00 00 00       	mov    $0x64,%eax
  102a60:	90                   	nop
  102a61:	90                   	nop
  102a62:	83 e8 02             	sub    $0x2,%eax
  102a65:	75 f9                	jne    102a60 <sb16_init+0x10>
  102a67:	31 c0                	xor    %eax,%eax
  102a69:	ba 26 02 00 00       	mov    $0x226,%edx
  102a6e:	ee                   	out    %al,(%dx)
  102a6f:	b9 d0 07 00 00       	mov    $0x7d0,%ecx
  102a74:	ba 2e 02 00 00       	mov    $0x22e,%edx
  102a79:	eb 0a                	jmp    102a85 <sb16_init+0x35>
  102a7b:	2e 8d 74 26 00       	lea    %cs:0x0(%esi,%eiz,1),%esi
  102a80:	83 e9 01             	sub    $0x1,%ecx
  102a83:	74 14                	je     102a99 <sb16_init+0x49>
  102a85:	ec                   	in     (%dx),%al
  102a86:	84 c0                	test   %al,%al
  102a88:	79 f6                	jns    102a80 <sb16_init+0x30>
  102a8a:	ba 2a 02 00 00       	mov    $0x22a,%edx
  102a8f:	ec                   	in     (%dx),%al
  102a90:	31 d2                	xor    %edx,%edx
  102a92:	3c aa                	cmp    $0xaa,%al
  102a94:	74 08                	je     102a9e <sb16_init+0x4e>
  102a96:	89 d0                	mov    %edx,%eax
  102a98:	c3                   	ret
  102a99:	31 d2                	xor    %edx,%edx
  102a9b:	89 d0                	mov    %edx,%eax
  102a9d:	c3                   	ret
  102a9e:	83 ec 18             	sub    $0x18,%esp
  102aa1:	68 b9 2e 14 00       	push   $0x142eb9
  102aa6:	e8 d5 e4 ff ff       	call   100f80 <s_printf>
  102aab:	b8 01 00 00 00       	mov    $0x1,%eax
  102ab0:	83 c4 1c             	add    $0x1c,%esp
  102ab3:	c3                   	ret
  102ab4:	2e 8d b4 26 00 00 00 	lea    %cs:0x0(%esi,%eiz,1),%esi
  102abb:	00 
  102abc:	8d 74 26 00          	lea    0x0(%esi,%eiz,1),%esi

00102ac0 <sb16_play_direct>:
  102ac0:	55                   	push   %ebp
  102ac1:	57                   	push   %edi
  102ac2:	56                   	push   %esi
  102ac3:	53                   	push   %ebx
  102ac4:	83 ec 1c             	sub    $0x1c,%esp
  102ac7:	8b 74 24 30          	mov    0x30(%esp),%esi
  102acb:	8b 7c 24 34          	mov    0x34(%esp),%edi
  102acf:	e8 7c ff ff ff       	call   102a50 <sb16_init>
  102ad4:	85 c0                	test   %eax,%eax
  102ad6:	75 08                	jne    102ae0 <sb16_play_direct+0x20>
  102ad8:	83 c4 1c             	add    $0x1c,%esp
  102adb:	5b                   	pop    %ebx
  102adc:	5e                   	pop    %esi
  102add:	5f                   	pop    %edi
  102ade:	5d                   	pop    %ebp
  102adf:	c3                   	ret
  102ae0:	b9 e8 03 00 00       	mov    $0x3e8,%ecx
  102ae5:	ba 2c 02 00 00       	mov    $0x22c,%edx
  102aea:	eb 09                	jmp    102af5 <sb16_play_direct+0x35>
  102aec:	8d 74 26 00          	lea    0x0(%esi,%eiz,1),%esi
  102af0:	83 e9 01             	sub    $0x1,%ecx
  102af3:	74 0b                	je     102b00 <sb16_play_direct+0x40>
  102af5:	ec                   	in     (%dx),%al
  102af6:	84 c0                	test   %al,%al
  102af8:	78 f6                	js     102af0 <sb16_play_direct+0x30>
  102afa:	b8 d1 ff ff ff       	mov    $0xffffffd1,%eax
  102aff:	ee                   	out    %al,(%dx)
  102b00:	bd ff ff 00 00       	mov    $0xffff,%ebp
  102b05:	ba 2c 02 00 00       	mov    $0x22c,%edx
  102b0a:	39 ef                	cmp    %ebp,%edi
  102b0c:	0f 46 ef             	cmovbe %edi,%ebp
  102b0f:	31 db                	xor    %ebx,%ebx
  102b11:	85 ff                	test   %edi,%edi
  102b13:	74 68                	je     102b7d <sb16_play_direct+0xbd>
  102b15:	8d 76 00             	lea    0x0(%esi),%esi
  102b18:	b9 e8 03 00 00       	mov    $0x3e8,%ecx
  102b1d:	eb 06                	jmp    102b25 <sb16_play_direct+0x65>
  102b1f:	90                   	nop
  102b20:	83 e9 01             	sub    $0x1,%ecx
  102b23:	74 0b                	je     102b30 <sb16_play_direct+0x70>
  102b25:	ec                   	in     (%dx),%al
  102b26:	84 c0                	test   %al,%al
  102b28:	78 f6                	js     102b20 <sb16_play_direct+0x60>
  102b2a:	b8 10 00 00 00       	mov    $0x10,%eax
  102b2f:	ee                   	out    %al,(%dx)
  102b30:	0f b6 3c 1e          	movzbl (%esi,%ebx,1),%edi
  102b34:	b9 e8 03 00 00       	mov    $0x3e8,%ecx
  102b39:	eb 0a                	jmp    102b45 <sb16_play_direct+0x85>
  102b3b:	2e 8d 74 26 00       	lea    %cs:0x0(%esi,%eiz,1),%esi
  102b40:	83 e9 01             	sub    $0x1,%ecx
  102b43:	74 08                	je     102b4d <sb16_play_direct+0x8d>
  102b45:	ec                   	in     (%dx),%al
  102b46:	84 c0                	test   %al,%al
  102b48:	78 f6                	js     102b40 <sb16_play_direct+0x80>
  102b4a:	89 f8                	mov    %edi,%eax
  102b4c:	ee                   	out    %al,(%dx)
  102b4d:	c7 44 24 0c 00 00 00 	movl   $0x0,0xc(%esp)
  102b54:	00 
  102b55:	8b 44 24 0c          	mov    0xc(%esp),%eax
  102b59:	3d db 05 00 00       	cmp    $0x5db,%eax
  102b5e:	7f 16                	jg     102b76 <sb16_play_direct+0xb6>
  102b60:	8b 44 24 0c          	mov    0xc(%esp),%eax
  102b64:	83 c0 01             	add    $0x1,%eax
  102b67:	89 44 24 0c          	mov    %eax,0xc(%esp)
  102b6b:	8b 44 24 0c          	mov    0xc(%esp),%eax
  102b6f:	3d db 05 00 00       	cmp    $0x5db,%eax
  102b74:	7e ea                	jle    102b60 <sb16_play_direct+0xa0>
  102b76:	83 c3 01             	add    $0x1,%ebx
  102b79:	39 eb                	cmp    %ebp,%ebx
  102b7b:	72 9b                	jb     102b18 <sb16_play_direct+0x58>
  102b7d:	b9 e8 03 00 00       	mov    $0x3e8,%ecx
  102b82:	ba 2c 02 00 00       	mov    $0x22c,%edx
  102b87:	eb 10                	jmp    102b99 <sb16_play_direct+0xd9>
  102b89:	8d b4 26 00 00 00 00 	lea    0x0(%esi,%eiz,1),%esi
  102b90:	83 e9 01             	sub    $0x1,%ecx
  102b93:	0f 84 3f ff ff ff    	je     102ad8 <sb16_play_direct+0x18>
  102b99:	ec                   	in     (%dx),%al
  102b9a:	84 c0                	test   %al,%al
  102b9c:	78 f2                	js     102b90 <sb16_play_direct+0xd0>
  102b9e:	b8 d3 ff ff ff       	mov    $0xffffffd3,%eax
  102ba3:	ee                   	out    %al,(%dx)
  102ba4:	83 c4 1c             	add    $0x1c,%esp
  102ba7:	5b                   	pop    %ebx
  102ba8:	5e                   	pop    %esi
  102ba9:	5f                   	pop    %edi
  102baa:	5d                   	pop    %ebp
  102bab:	c3                   	ret
  102bac:	66 90                	xchg   %ax,%ax
  102bae:	66 90                	xchg   %ax,%ax

00102bb0 <ioapic_set_gsi_redirect>:
  102bb0:	55                   	push   %ebp
  102bb1:	57                   	push   %edi
  102bb2:	56                   	push   %esi
  102bb3:	53                   	push   %ebx
  102bb4:	83 ec 28             	sub    $0x28,%esp
  102bb7:	0f b6 74 24 40       	movzbl 0x40(%esp),%esi
  102bbc:	8b 6c 24 48          	mov    0x48(%esp),%ebp
  102bc0:	0f b6 54 24 44       	movzbl 0x44(%esp),%edx
  102bc5:	0f b6 7c 24 3c       	movzbl 0x3c(%esp),%edi
  102bca:	89 f0                	mov    %esi,%eax
  102bcc:	c1 e2 18             	shl    $0x18,%edx
  102bcf:	80 cc 20             	or     $0x20,%ah
  102bd2:	8d 4c 3f 10          	lea    0x10(%edi,%edi,1),%ecx
  102bd6:	85 ed                	test   %ebp,%ebp
  102bd8:	0f 44 c6             	cmove  %esi,%eax
  102bdb:	8d 59 01             	lea    0x1(%ecx),%ebx
  102bde:	89 c5                	mov    %eax,%ebp
  102be0:	81 cd 00 80 00 00    	or     $0x8000,%ebp
  102be6:	83 7c 24 4c 00       	cmpl   $0x0,0x4c(%esp)
  102beb:	89 1d 00 00 c0 fe    	mov    %ebx,0xfec00000
  102bf1:	0f 45 c5             	cmovne %ebp,%eax
  102bf4:	89 15 10 00 c0 fe    	mov    %edx,0xfec00010
  102bfa:	89 0d 00 00 c0 fe    	mov    %ecx,0xfec00000
  102c00:	a3 10 00 c0 fe       	mov    %eax,0xfec00010
  102c05:	68 ce 2e 14 00       	push   $0x142ece
  102c0a:	e8 71 e3 ff ff       	call   100f80 <s_printf>
  102c0f:	58                   	pop    %eax
  102c10:	5a                   	pop    %edx
  102c11:	8d 5c 24 10          	lea    0x10(%esp),%ebx
  102c15:	53                   	push   %ebx
  102c16:	57                   	push   %edi
  102c17:	e8 14 2f 00 00       	call   105b30 <int_to_str>
  102c1c:	89 1c 24             	mov    %ebx,(%esp)
  102c1f:	e8 5c e3 ff ff       	call   100f80 <s_printf>
  102c24:	c7 04 24 e0 2e 14 00 	movl   $0x142ee0,(%esp)
  102c2b:	e8 50 e3 ff ff       	call   100f80 <s_printf>
  102c30:	59                   	pop    %ecx
  102c31:	5f                   	pop    %edi
  102c32:	53                   	push   %ebx
  102c33:	56                   	push   %esi
  102c34:	e8 f7 2e 00 00       	call   105b30 <int_to_str>
  102c39:	89 1c 24             	mov    %ebx,(%esp)
  102c3c:	e8 3f e3 ff ff       	call   100f80 <s_printf>
  102c41:	c7 04 24 a4 30 14 00 	movl   $0x1430a4,(%esp)
  102c48:	e8 33 e3 ff ff       	call   100f80 <s_printf>
  102c4d:	83 c4 2c             	add    $0x2c,%esp
  102c50:	5b                   	pop    %ebx
  102c51:	5e                   	pop    %esi
  102c52:	5f                   	pop    %edi
  102c53:	5d                   	pop    %ebp
  102c54:	c3                   	ret
  102c55:	2e 8d b4 26 00 00 00 	lea    %cs:0x0(%esi,%eiz,1),%esi
  102c5c:	00 
  102c5d:	8d 76 00             	lea    0x0(%esi),%esi

00102c60 <apic_send_eoi>:
  102c60:	c7 05 b0 00 e0 fe 00 	movl   $0x0,0xfee000b0
  102c67:	00 00 00 
  102c6a:	c3                   	ret
  102c6b:	2e 8d 74 26 00       	lea    %cs:0x0(%esi,%eiz,1),%esi

00102c70 <init_apic>:
  102c70:	57                   	push   %edi
  102c71:	56                   	push   %esi
  102c72:	53                   	push   %ebx
  102c73:	83 ec 1c             	sub    $0x1c,%esp
  102c76:	68 ec 2e 14 00       	push   $0x142eec
  102c7b:	e8 00 e3 ff ff       	call   100f80 <s_printf>
  102c80:	6a 03                	push   $0x3
  102c82:	68 00 10 00 00       	push   $0x1000
  102c87:	68 00 00 e0 fe       	push   $0xfee00000
  102c8c:	68 00 00 e0 fe       	push   $0xfee00000
  102c91:	e8 6a 08 00 00       	call   103500 <paging_map_region>
  102c96:	83 c4 20             	add    $0x20,%esp
  102c99:	6a 03                	push   $0x3
  102c9b:	68 00 10 00 00       	push   $0x1000
  102ca0:	68 00 00 c0 fe       	push   $0xfec00000
  102ca5:	68 00 00 c0 fe       	push   $0xfec00000
  102caa:	e8 51 08 00 00       	call   103500 <paging_map_region>
  102caf:	b8 ff ff ff ff       	mov    $0xffffffff,%eax
  102cb4:	e6 21                	out    %al,$0x21
  102cb6:	e6 a1                	out    %al,$0xa1
  102cb8:	be 1b 00 00 00       	mov    $0x1b,%esi
  102cbd:	89 f1                	mov    %esi,%ecx
  102cbf:	0f 32                	rdmsr
  102cc1:	83 c4 10             	add    $0x10,%esp
  102cc4:	f6 c4 08             	test   $0x8,%ah
  102cc7:	0f 84 e3 00 00 00    	je     102db0 <init_apic+0x140>
  102ccd:	c7 05 f0 00 e0 fe ff 	movl   $0x1ff,0xfee000f0
  102cd4:	01 00 00 
  102cd7:	31 db                	xor    %ebx,%ebx
  102cd9:	c7 05 e0 03 e0 fe 03 	movl   $0x3,0xfee003e0
  102ce0:	00 00 00 
  102ce3:	c7 05 20 03 e0 fe 00 	movl   $0x10000,0xfee00320
  102cea:	00 01 00 
  102ced:	c7 05 80 00 e0 fe 00 	movl   $0x0,0xfee00080
  102cf4:	00 00 00 
  102cf7:	2e 8d b4 26 00 00 00 	lea    %cs:0x0(%esi,%eiz,1),%esi
  102cfe:	00 
  102cff:	90                   	nop
  102d00:	83 ec 0c             	sub    $0xc,%esp
  102d03:	8d 43 20             	lea    0x20(%ebx),%eax
  102d06:	6a 00                	push   $0x0
  102d08:	6a 00                	push   $0x0
  102d0a:	6a 00                	push   $0x0
  102d0c:	50                   	push   %eax
  102d0d:	53                   	push   %ebx
  102d0e:	83 c3 01             	add    $0x1,%ebx
  102d11:	e8 9a fe ff ff       	call   102bb0 <ioapic_set_gsi_redirect>
  102d16:	83 c4 20             	add    $0x20,%esp
  102d19:	83 fb 10             	cmp    $0x10,%ebx
  102d1c:	75 e2                	jne    102d00 <init_apic+0x90>
  102d1e:	c7 05 00 00 c0 fe 13 	movl   $0x13,0xfec00000
  102d25:	00 00 00 
  102d28:	83 ec 0c             	sub    $0xc,%esp
  102d2b:	c7 05 10 00 c0 fe 00 	movl   $0x0,0xfec00010
  102d32:	00 00 00 
  102d35:	c7 05 00 00 c0 fe 12 	movl   $0x12,0xfec00000
  102d3c:	00 00 00 
  102d3f:	c7 05 10 00 c0 fe 21 	movl   $0x21,0xfec00010
  102d46:	00 00 00 
  102d49:	68 ce 2e 14 00       	push   $0x142ece
  102d4e:	e8 2d e2 ff ff       	call   100f80 <s_printf>
  102d53:	58                   	pop    %eax
  102d54:	5a                   	pop    %edx
  102d55:	8d 5c 24 10          	lea    0x10(%esp),%ebx
  102d59:	53                   	push   %ebx
  102d5a:	6a 01                	push   $0x1
  102d5c:	e8 cf 2d 00 00       	call   105b30 <int_to_str>
  102d61:	89 1c 24             	mov    %ebx,(%esp)
  102d64:	e8 17 e2 ff ff       	call   100f80 <s_printf>
  102d69:	c7 04 24 e0 2e 14 00 	movl   $0x142ee0,(%esp)
  102d70:	e8 0b e2 ff ff       	call   100f80 <s_printf>
  102d75:	59                   	pop    %ecx
  102d76:	5e                   	pop    %esi
  102d77:	53                   	push   %ebx
  102d78:	6a 21                	push   $0x21
  102d7a:	e8 b1 2d 00 00       	call   105b30 <int_to_str>
  102d7f:	89 1c 24             	mov    %ebx,(%esp)
  102d82:	e8 f9 e1 ff ff       	call   100f80 <s_printf>
  102d87:	c7 04 24 a4 30 14 00 	movl   $0x1430a4,(%esp)
  102d8e:	e8 ed e1 ff ff       	call   100f80 <s_printf>
  102d93:	c7 04 24 8c 27 14 00 	movl   $0x14278c,(%esp)
  102d9a:	e8 e1 e1 ff ff       	call   100f80 <s_printf>
  102d9f:	83 c4 20             	add    $0x20,%esp
  102da2:	5b                   	pop    %ebx
  102da3:	5e                   	pop    %esi
  102da4:	5f                   	pop    %edi
  102da5:	c3                   	ret
  102da6:	2e 8d b4 26 00 00 00 	lea    %cs:0x0(%esi,%eiz,1),%esi
  102dad:	00 
  102dae:	66 90                	xchg   %ax,%ax
  102db0:	83 ec 0c             	sub    $0xc,%esp
  102db3:	89 c3                	mov    %eax,%ebx
  102db5:	89 d7                	mov    %edx,%edi
  102db7:	68 04 2f 14 00       	push   $0x142f04
  102dbc:	e8 bf e1 ff ff       	call   100f80 <s_printf>
  102dc1:	89 d8                	mov    %ebx,%eax
  102dc3:	89 fa                	mov    %edi,%edx
  102dc5:	89 f1                	mov    %esi,%ecx
  102dc7:	25 ff 0f 00 00       	and    $0xfff,%eax
  102dcc:	0d 00 08 e0 fe       	or     $0xfee00800,%eax
  102dd1:	0f 30                	wrmsr
  102dd3:	83 c4 10             	add    $0x10,%esp
  102dd6:	e9 f2 fe ff ff       	jmp    102ccd <init_apic+0x5d>
  102ddb:	66 90                	xchg   %ax,%ax
  102ddd:	66 90                	xchg   %ax,%ax
  102ddf:	90                   	nop

00102de0 <idt_set_gate>:
  102de0:	0f b6 44 24 04       	movzbl 0x4(%esp),%eax
  102de5:	8b 4c 24 0c          	mov    0xc(%esp),%ecx
  102de9:	8b 54 24 08          	mov    0x8(%esp),%edx
  102ded:	66 89 0c c5 62 d9 14 	mov    %cx,0x14d962(,%eax,8)
  102df4:	00 
  102df5:	8b 4c 24 10          	mov    0x10(%esp),%ecx
  102df9:	66 89 14 c5 60 d9 14 	mov    %dx,0x14d960(,%eax,8)
  102e00:	00 
  102e01:	c1 ea 10             	shr    $0x10,%edx
  102e04:	c6 04 c5 64 d9 14 00 	movb   $0x0,0x14d964(,%eax,8)
  102e0b:	00 
  102e0c:	88 0c c5 65 d9 14 00 	mov    %cl,0x14d965(,%eax,8)
  102e13:	66 89 14 c5 66 d9 14 	mov    %dx,0x14d966(,%eax,8)
  102e1a:	00 
  102e1b:	c3                   	ret
  102e1c:	8d 74 26 00          	lea    0x0(%esi,%eiz,1),%esi

00102e20 <init_idt>:
  102e20:	83 ec 10             	sub    $0x10,%esp
  102e23:	b8 ff 07 00 00       	mov    $0x7ff,%eax
  102e28:	c7 05 42 d9 14 00 60 	movl   $0x14d960,0x14d942
  102e2f:	d9 14 00 
  102e32:	68 00 08 00 00       	push   $0x800
  102e37:	6a 00                	push   $0x0
  102e39:	68 60 d9 14 00       	push   $0x14d960
  102e3e:	66 a3 40 d9 14 00    	mov    %ax,0x14d940
  102e44:	e8 b7 2e 00 00       	call   105d00 <memset>
  102e49:	b8 11 00 00 00       	mov    $0x11,%eax
  102e4e:	e6 20                	out    %al,$0x20
  102e50:	e6 a0                	out    %al,$0xa0
  102e52:	b8 20 00 00 00       	mov    $0x20,%eax
  102e57:	e6 21                	out    %al,$0x21
  102e59:	b8 28 00 00 00       	mov    $0x28,%eax
  102e5e:	e6 a1                	out    %al,$0xa1
  102e60:	b8 04 00 00 00       	mov    $0x4,%eax
  102e65:	e6 21                	out    %al,$0x21
  102e67:	b8 02 00 00 00       	mov    $0x2,%eax
  102e6c:	e6 a1                	out    %al,$0xa1
  102e6e:	b8 01 00 00 00       	mov    $0x1,%eax
  102e73:	e6 21                	out    %al,$0x21
  102e75:	e6 a1                	out    %al,$0xa1
  102e77:	31 c0                	xor    %eax,%eax
  102e79:	e6 21                	out    %al,$0x21
  102e7b:	e6 a1                	out    %al,$0xa1
  102e7d:	0f b7 0d 2e 84 11 00 	movzwl 0x11842e,%ecx
  102e84:	83 c4 10             	add    $0x10,%esp
  102e87:	31 c0                	xor    %eax,%eax
  102e89:	8d b4 26 00 00 00 00 	lea    0x0(%esi,%eiz,1),%esi
  102e90:	8b 14 85 00 40 14 00 	mov    0x144000(,%eax,4),%edx
  102e97:	66 89 0c c5 64 d9 14 	mov    %cx,0x14d964(,%eax,8)
  102e9e:	00 
  102e9f:	66 c7 04 c5 62 d9 14 	movw   $0x8,0x14d962(,%eax,8)
  102ea6:	00 08 00 
  102ea9:	66 89 14 c5 60 d9 14 	mov    %dx,0x14d960(,%eax,8)
  102eb0:	00 
  102eb1:	c1 ea 10             	shr    $0x10,%edx
  102eb4:	66 89 14 c5 66 d9 14 	mov    %dx,0x14d966(,%eax,8)
  102ebb:	00 
  102ebc:	83 c0 01             	add    $0x1,%eax
  102ebf:	83 f8 20             	cmp    $0x20,%eax
  102ec2:	75 cc                	jne    102e90 <init_idt+0x70>
  102ec4:	31 c0                	xor    %eax,%eax
  102ec6:	2e 8d b4 26 00 00 00 	lea    %cs:0x0(%esi,%eiz,1),%esi
  102ecd:	00 
  102ece:	66 90                	xchg   %ax,%ax
  102ed0:	8b 14 85 80 40 14 00 	mov    0x144080(,%eax,4),%edx
  102ed7:	66 89 0c c5 64 da 14 	mov    %cx,0x14da64(,%eax,8)
  102ede:	00 
  102edf:	66 c7 04 c5 62 da 14 	movw   $0x8,0x14da62(,%eax,8)
  102ee6:	00 08 00 
  102ee9:	66 89 14 c5 60 da 14 	mov    %dx,0x14da60(,%eax,8)
  102ef0:	00 
  102ef1:	c1 ea 10             	shr    $0x10,%edx
  102ef4:	66 89 14 c5 66 da 14 	mov    %dx,0x14da66(,%eax,8)
  102efb:	00 
  102efc:	83 c0 01             	add    $0x1,%eax
  102eff:	83 f8 10             	cmp    $0x10,%eax
  102f02:	75 cc                	jne    102ed0 <init_idt+0xb0>
  102f04:	c7 05 62 dd 14 00 08 	movl   $0x8e000008,0x14dd62
  102f0b:	00 00 8e 
  102f0e:	b8 fa 01 10 00       	mov    $0x1001fa,%eax
  102f13:	66 a3 60 dd 14 00    	mov    %ax,0x14dd60
  102f19:	c1 e8 10             	shr    $0x10,%eax
  102f1c:	66 a3 66 dd 14 00    	mov    %ax,0x14dd66
  102f22:	0f 01 1d 40 d9 14 00 	lidtl  0x14d940
  102f29:	fb                   	sti
  102f2a:	83 c4 0c             	add    $0xc,%esp
  102f2d:	c3                   	ret
  102f2e:	66 90                	xchg   %ax,%ax

00102f30 <isr_handler>:
  102f30:	57                   	push   %edi
  102f31:	56                   	push   %esi
  102f32:	53                   	push   %ebx
  102f33:	83 ec 10             	sub    $0x10,%esp
  102f36:	8b 44 24 50          	mov    0x50(%esp),%eax
  102f3a:	83 f8 1f             	cmp    $0x1f,%eax
  102f3d:	77 51                	ja     102f90 <isr_handler+0x60>
  102f3f:	83 f8 0e             	cmp    $0xe,%eax
  102f42:	0f 84 b8 00 00 00    	je     103000 <isr_handler+0xd0>
  102f48:	83 f8 06             	cmp    $0x6,%eax
  102f4b:	0f 84 df 00 00 00    	je     103030 <isr_handler+0x100>
  102f51:	83 ec 0c             	sub    $0xc,%esp
  102f54:	68 37 2f 14 00       	push   $0x142f37
  102f59:	e8 22 e0 ff ff       	call   100f80 <s_printf>
  102f5e:	58                   	pop    %eax
  102f5f:	5a                   	pop    %edx
  102f60:	8d 5c 24 10          	lea    0x10(%esp),%ebx
  102f64:	53                   	push   %ebx
  102f65:	ff 74 24 5c          	push   0x5c(%esp)
  102f69:	e8 c2 2b 00 00       	call   105b30 <int_to_str>
  102f6e:	89 1c 24             	mov    %ebx,(%esp)
  102f71:	e8 0a e0 ff ff       	call   100f80 <s_printf>
  102f76:	c7 04 24 a4 30 14 00 	movl   $0x1430a4,(%esp)
  102f7d:	e8 fe df ff ff       	call   100f80 <s_printf>
  102f82:	83 c4 10             	add    $0x10,%esp
  102f85:	83 c4 10             	add    $0x10,%esp
  102f88:	5b                   	pop    %ebx
  102f89:	5e                   	pop    %esi
  102f8a:	5f                   	pop    %edi
  102f8b:	c3                   	ret
  102f8c:	8d 74 26 00          	lea    0x0(%esi,%eiz,1),%esi
  102f90:	3d 80 00 00 00       	cmp    $0x80,%eax
  102f95:	0f 84 85 00 00 00    	je     103020 <isr_handler+0xf0>
  102f9b:	8d 58 e0             	lea    -0x20(%eax),%ebx
  102f9e:	83 fb 0f             	cmp    $0xf,%ebx
  102fa1:	77 e2                	ja     102f85 <isr_handler+0x55>
  102fa3:	85 db                	test   %ebx,%ebx
  102fa5:	74 41                	je     102fe8 <isr_handler+0xb8>
  102fa7:	83 fb 01             	cmp    $0x1,%ebx
  102faa:	0f 84 b0 00 00 00    	je     103060 <isr_handler+0x130>
  102fb0:	83 fb 0c             	cmp    $0xc,%ebx
  102fb3:	0f 84 b7 00 00 00    	je     103070 <isr_handler+0x140>
  102fb9:	0f b6 05 09 41 14 00 	movzbl 0x144109,%eax
  102fc0:	3c ff                	cmp    $0xff,%al
  102fc2:	74 08                	je     102fcc <isr_handler+0x9c>
  102fc4:	39 c3                	cmp    %eax,%ebx
  102fc6:	0f 84 84 00 00 00    	je     103050 <isr_handler+0x120>
  102fcc:	0f b6 05 08 41 14 00 	movzbl 0x144108,%eax
  102fd3:	3c ff                	cmp    $0xff,%al
  102fd5:	74 16                	je     102fed <isr_handler+0xbd>
  102fd7:	39 c3                	cmp    %eax,%ebx
  102fd9:	75 12                	jne    102fed <isr_handler+0xbd>
  102fdb:	e8 e0 f0 ff ff       	call   1020c0 <rtl8169_handler>
  102fe0:	eb 0b                	jmp    102fed <isr_handler+0xbd>
  102fe2:	8d b6 00 00 00 00    	lea    0x0(%esi),%esi
  102fe8:	e8 d3 01 00 00       	call   1031c0 <timer_callback>
  102fed:	e8 6e fc ff ff       	call   102c60 <apic_send_eoi>
  102ff2:	83 c4 10             	add    $0x10,%esp
  102ff5:	5b                   	pop    %ebx
  102ff6:	5e                   	pop    %esi
  102ff7:	5f                   	pop    %edi
  102ff8:	c3                   	ret
  102ff9:	8d b4 26 00 00 00 00 	lea    0x0(%esi,%eiz,1),%esi
  103000:	83 ec 50             	sub    $0x50,%esp
  103003:	b9 13 00 00 00       	mov    $0x13,%ecx
  103008:	89 e7                	mov    %esp,%edi
  10300a:	8d 74 24 70          	lea    0x70(%esp),%esi
  10300e:	f3 a5                	rep movsl %ds:(%esi),%es:(%edi)
  103010:	e8 fb 02 00 00       	call   103310 <page_fault_handler>
  103015:	83 c4 50             	add    $0x50,%esp
  103018:	e9 68 ff ff ff       	jmp    102f85 <isr_handler+0x55>
  10301d:	8d 76 00             	lea    0x0(%esi),%esi
  103020:	e8 9b f0 ff ff       	call   1020c0 <rtl8169_handler>
  103025:	e9 5b ff ff ff       	jmp    102f85 <isr_handler+0x55>
  10302a:	8d b6 00 00 00 00    	lea    0x0(%esi),%esi
  103030:	83 ec 08             	sub    $0x8,%esp
  103033:	8d 44 24 28          	lea    0x28(%esp),%eax
  103037:	50                   	push   %eax
  103038:	68 20 2f 14 00       	push   $0x142f20
  10303d:	e8 de 1d 00 00       	call   104e20 <panic>
  103042:	83 c4 10             	add    $0x10,%esp
  103045:	83 c4 10             	add    $0x10,%esp
  103048:	5b                   	pop    %ebx
  103049:	5e                   	pop    %esi
  10304a:	5f                   	pop    %edi
  10304b:	c3                   	ret
  10304c:	8d 74 26 00          	lea    0x0(%esi,%eiz,1),%esi
  103050:	e8 6b ee ff ff       	call   101ec0 <rtl8139_handler>
  103055:	e9 72 ff ff ff       	jmp    102fcc <isr_handler+0x9c>
  10305a:	8d b6 00 00 00 00    	lea    0x0(%esi),%esi
  103060:	e8 3b e0 ff ff       	call   1010a0 <keyboard_callback>
  103065:	eb 86                	jmp    102fed <isr_handler+0xbd>
  103067:	2e 8d b4 26 00 00 00 	lea    %cs:0x0(%esi,%eiz,1),%esi
  10306e:	00 
  10306f:	90                   	nop
  103070:	e8 1b e3 ff ff       	call   101390 <mouse_handler>
  103075:	e9 73 ff ff ff       	jmp    102fed <isr_handler+0xbd>
  10307a:	66 90                	xchg   %ax,%ax
  10307c:	66 90                	xchg   %ax,%ax
  10307e:	66 90                	xchg   %ax,%ax

00103080 <gdt_zero>:
  103080:	8b 4c 24 08          	mov    0x8(%esp),%ecx
  103084:	85 c9                	test   %ecx,%ecx
  103086:	7e 26                	jle    1030ae <gdt_zero+0x2e>
  103088:	8b 44 24 04          	mov    0x4(%esp),%eax
  10308c:	8d 14 08             	lea    (%eax,%ecx,1),%edx
  10308f:	83 e1 01             	and    $0x1,%ecx
  103092:	74 0c                	je     1030a0 <gdt_zero+0x20>
  103094:	c6 00 00             	movb   $0x0,(%eax)
  103097:	83 c0 01             	add    $0x1,%eax
  10309a:	39 d0                	cmp    %edx,%eax
  10309c:	74 11                	je     1030af <gdt_zero+0x2f>
  10309e:	66 90                	xchg   %ax,%ax
  1030a0:	c6 00 00             	movb   $0x0,(%eax)
  1030a3:	83 c0 02             	add    $0x2,%eax
  1030a6:	c6 40 ff 00          	movb   $0x0,-0x1(%eax)
  1030aa:	39 d0                	cmp    %edx,%eax
  1030ac:	75 f2                	jne    1030a0 <gdt_zero+0x20>
  1030ae:	c3                   	ret
  1030af:	c3                   	ret

001030b0 <gdt_set_gate>:
  1030b0:	57                   	push   %edi
  1030b1:	31 d2                	xor    %edx,%edx
  1030b3:	56                   	push   %esi
  1030b4:	53                   	push   %ebx
  1030b5:	8b 4c 24 14          	mov    0x14(%esp),%ecx
  1030b9:	8b 7c 24 18          	mov    0x18(%esp),%edi
  1030bd:	8b 5c 24 10          	mov    0x10(%esp),%ebx
  1030c1:	89 ce                	mov    %ecx,%esi
  1030c3:	c1 ee 10             	shr    $0x10,%esi
  1030c6:	66 89 0c dd 82 e1 14 	mov    %cx,0x14e182(,%ebx,8)
  1030cd:	00 
  1030ce:	81 e1 00 00 00 ff    	and    $0xff000000,%ecx
  1030d4:	89 f0                	mov    %esi,%eax
  1030d6:	0f b6 74 24 20       	movzbl 0x20(%esp),%esi
  1030db:	66 89 3c dd 80 e1 14 	mov    %di,0x14e180(,%ebx,8)
  1030e2:	00 
  1030e3:	88 c2                	mov    %al,%dl
  1030e5:	89 f8                	mov    %edi,%eax
  1030e7:	8a 74 24 1c          	mov    0x1c(%esp),%dh
  1030eb:	c1 e8 10             	shr    $0x10,%eax
  1030ee:	83 e6 f0             	and    $0xfffffff0,%esi
  1030f1:	83 e0 0f             	and    $0xf,%eax
  1030f4:	0f b7 d2             	movzwl %dx,%edx
  1030f7:	09 f0                	or     %esi,%eax
  1030f9:	0f b6 c0             	movzbl %al,%eax
  1030fc:	c1 e0 10             	shl    $0x10,%eax
  1030ff:	09 c2                	or     %eax,%edx
  103101:	09 d1                	or     %edx,%ecx
  103103:	89 0c dd 84 e1 14 00 	mov    %ecx,0x14e184(,%ebx,8)
  10310a:	5b                   	pop    %ebx
  10310b:	5e                   	pop    %esi
  10310c:	5f                   	pop    %edi
  10310d:	c3                   	ret
  10310e:	66 90                	xchg   %ax,%ax

00103110 <init_gdt>:
  103110:	b8 27 00 00 00       	mov    $0x27,%eax
  103115:	ba a8 e1 14 00       	mov    $0x14e1a8,%edx
  10311a:	66 a3 60 e1 14 00    	mov    %ax,0x14e160
  103120:	b8 80 e1 14 00       	mov    $0x14e180,%eax
  103125:	a3 62 e1 14 00       	mov    %eax,0x14e162
  10312a:	c7 00 00 00 00 00    	movl   $0x0,(%eax)
  103130:	83 c0 08             	add    $0x8,%eax
  103133:	c7 40 fc 00 00 00 00 	movl   $0x0,-0x4(%eax)
  10313a:	39 c2                	cmp    %eax,%edx
  10313c:	75 ec                	jne    10312a <init_gdt+0x1a>
  10313e:	c7 05 80 e1 14 00 00 	movl   $0x0,0x14e180
  103145:	00 00 00 
  103148:	ba 60 e1 14 00       	mov    $0x14e160,%edx
  10314d:	c7 05 84 e1 14 00 00 	movl   $0x0,0x14e184
  103154:	00 00 00 
  103157:	c7 05 88 e1 14 00 ff 	movl   $0xffff,0x14e188
  10315e:	ff 00 00 
  103161:	c7 05 8c e1 14 00 00 	movl   $0xcf9a00,0x14e18c
  103168:	9a cf 00 
  10316b:	c7 05 90 e1 14 00 ff 	movl   $0xffff,0x14e190
  103172:	ff 00 00 
  103175:	c7 05 94 e1 14 00 00 	movl   $0xcf9200,0x14e194
  10317c:	92 cf 00 
  10317f:	c7 05 98 e1 14 00 ff 	movl   $0xffff,0x14e198
  103186:	ff 00 00 
  103189:	c7 05 9c e1 14 00 00 	movl   $0xcffa00,0x14e19c
  103190:	fa cf 00 
  103193:	c7 05 a0 e1 14 00 ff 	movl   $0xffff,0x14e1a0
  10319a:	ff 00 00 
  10319d:	c7 05 a4 e1 14 00 00 	movl   $0xcff200,0x14e1a4
  1031a4:	f2 cf 00 
  1031a7:	0f 01 12             	lgdtl  (%edx)
  1031aa:	66 b8 10 00          	mov    $0x10,%ax
  1031ae:	8e d8                	mov    %eax,%ds
  1031b0:	8e c0                	mov    %eax,%es
  1031b2:	8e e0                	mov    %eax,%fs
  1031b4:	8e e8                	mov    %eax,%gs
  1031b6:	8e d0                	mov    %eax,%ss
  1031b8:	ea bf 31 10 00 08 00 	ljmp   $0x8,$0x1031bf

001031bf <.flush>:
  1031bf:	c3                   	ret

001031c0 <timer_callback>:
  1031c0:	a1 ac e1 14 00       	mov    0x14e1ac,%eax
  1031c5:	83 c0 01             	add    $0x1,%eax
  1031c8:	a3 ac e1 14 00       	mov    %eax,0x14e1ac
  1031cd:	e9 8e fa ff ff       	jmp    102c60 <apic_send_eoi>
  1031d2:	2e 8d b4 26 00 00 00 	lea    %cs:0x0(%esi,%eiz,1),%esi
  1031d9:	00 
  1031da:	8d b6 00 00 00 00    	lea    0x0(%esi),%esi

001031e0 <apic_timer_calibrate>:
  1031e0:	83 ec 28             	sub    $0x28,%esp
  1031e3:	68 b0 27 14 00       	push   $0x1427b0
  1031e8:	e8 93 dd ff ff       	call   100f80 <s_printf>
  1031ed:	b8 30 00 00 00       	mov    $0x30,%eax
  1031f2:	c7 05 e0 03 e0 fe 03 	movl   $0x3,0xfee003e0
  1031f9:	00 00 00 
  1031fc:	c7 05 80 03 e0 fe ff 	movl   $0xffffffff,0xfee00380
  103203:	ff ff ff 
  103206:	e6 43                	out    %al,$0x43
  103208:	b8 9b ff ff ff       	mov    $0xffffff9b,%eax
  10320d:	e6 40                	out    %al,$0x40
  10320f:	b8 2e 00 00 00       	mov    $0x2e,%eax
  103214:	e6 40                	out    %al,$0x40
  103216:	c7 44 24 1c 00 00 00 	movl   $0x0,0x1c(%esp)
  10321d:	00 
  10321e:	8b 44 24 1c          	mov    0x1c(%esp),%eax
  103222:	83 c4 10             	add    $0x10,%esp
  103225:	3d 3f 42 0f 00       	cmp    $0xf423f,%eax
  10322a:	7f 1a                	jg     103246 <apic_timer_calibrate+0x66>
  10322c:	8d 74 26 00          	lea    0x0(%esi,%eiz,1),%esi
  103230:	8b 44 24 0c          	mov    0xc(%esp),%eax
  103234:	83 c0 01             	add    $0x1,%eax
  103237:	89 44 24 0c          	mov    %eax,0xc(%esp)
  10323b:	8b 44 24 0c          	mov    0xc(%esp),%eax
  10323f:	3d 3f 42 0f 00       	cmp    $0xf423f,%eax
  103244:	7e ea                	jle    103230 <apic_timer_calibrate+0x50>
  103246:	c7 05 20 03 e0 fe 00 	movl   $0x10000,0xfee00320
  10324d:	00 01 00 
  103250:	8b 15 90 03 e0 fe    	mov    0xfee00390,%edx
  103256:	b8 cd cc cc cc       	mov    $0xcccccccd,%eax
  10325b:	83 ec 0c             	sub    $0xc,%esp
  10325e:	68 d4 27 14 00       	push   $0x1427d4
  103263:	f7 d2                	not    %edx
  103265:	f7 e2                	mul    %edx
  103267:	c1 ea 03             	shr    $0x3,%edx
  10326a:	89 15 a8 e1 14 00    	mov    %edx,0x14e1a8
  103270:	e8 0b dd ff ff       	call   100f80 <s_printf>
  103275:	83 c4 2c             	add    $0x2c,%esp
  103278:	c3                   	ret
  103279:	8d b4 26 00 00 00 00 	lea    0x0(%esi,%eiz,1),%esi

00103280 <init_timer>:
  103280:	83 ec 0c             	sub    $0xc,%esp
  103283:	e8 58 ff ff ff       	call   1031e0 <apic_timer_calibrate>
  103288:	31 d2                	xor    %edx,%edx
  10328a:	c7 05 20 03 e0 fe 20 	movl   $0x20020,0xfee00320
  103291:	00 02 00 
  103294:	c7 05 e0 03 e0 fe 03 	movl   $0x3,0xfee003e0
  10329b:	00 00 00 
  10329e:	69 05 a8 e1 14 00 e8 	imul   $0x3e8,0x14e1a8,%eax
  1032a5:	03 00 00 
  1032a8:	f7 74 24 10          	divl   0x10(%esp)
  1032ac:	a3 80 03 e0 fe       	mov    %eax,0xfee00380
  1032b1:	83 c4 0c             	add    $0xc,%esp
  1032b4:	c3                   	ret
  1032b5:	2e 8d b4 26 00 00 00 	lea    %cs:0x0(%esi,%eiz,1),%esi
  1032bc:	00 
  1032bd:	8d 76 00             	lea    0x0(%esi),%esi

001032c0 <get_tick_count>:
  1032c0:	a1 ac e1 14 00       	mov    0x14e1ac,%eax
  1032c5:	c3                   	ret
  1032c6:	2e 8d b4 26 00 00 00 	lea    %cs:0x0(%esi,%eiz,1),%esi
  1032cd:	00 
  1032ce:	66 90                	xchg   %ax,%ax

001032d0 <timer_wait>:
  1032d0:	53                   	push   %ebx
  1032d1:	8b 5c 24 08          	mov    0x8(%esp),%ebx
  1032d5:	b8 67 66 66 66       	mov    $0x66666667,%eax
  1032da:	8b 0d ac e1 14 00    	mov    0x14e1ac,%ecx
  1032e0:	f7 eb                	imul   %ebx
  1032e2:	c1 fb 1f             	sar    $0x1f,%ebx
  1032e5:	c1 fa 02             	sar    $0x2,%edx
  1032e8:	29 da                	sub    %ebx,%edx
  1032ea:	8d 04 0a             	lea    (%edx,%ecx,1),%eax
  1032ed:	8b 15 ac e1 14 00    	mov    0x14e1ac,%edx
  1032f3:	39 c2                	cmp    %eax,%edx
  1032f5:	73 14                	jae    10330b <timer_wait+0x3b>
  1032f7:	2e 8d b4 26 00 00 00 	lea    %cs:0x0(%esi,%eiz,1),%esi
  1032fe:	00 
  1032ff:	90                   	nop
  103300:	f4                   	hlt
  103301:	8b 15 ac e1 14 00    	mov    0x14e1ac,%edx
  103307:	39 c2                	cmp    %eax,%edx
  103309:	72 f5                	jb     103300 <timer_wait+0x30>
  10330b:	5b                   	pop    %ebx
  10330c:	c3                   	ret
  10330d:	66 90                	xchg   %ax,%ax
  10330f:	90                   	nop

00103310 <page_fault_handler>:
  103310:	56                   	push   %esi
  103311:	53                   	push   %ebx
  103312:	83 ec 10             	sub    $0x10,%esp
  103315:	0f 20 d6             	mov    %cr2,%esi
  103318:	68 4e 2f 14 00       	push   $0x142f4e
  10331d:	bb 1c 00 00 00       	mov    $0x1c,%ebx
  103322:	e8 59 dc ff ff       	call   100f80 <s_printf>
  103327:	83 c4 10             	add    $0x10,%esp
  10332a:	8d b6 00 00 00 00    	lea    0x0(%esi),%esi
  103330:	89 d9                	mov    %ebx,%ecx
  103332:	89 f0                	mov    %esi,%eax
  103334:	83 ec 0c             	sub    $0xc,%esp
  103337:	83 eb 04             	sub    $0x4,%ebx
  10333a:	d3 e8                	shr    %cl,%eax
  10333c:	83 e0 0f             	and    $0xf,%eax
  10333f:	0f be 80 69 2f 14 00 	movsbl 0x142f69(%eax),%eax
  103346:	50                   	push   %eax
  103347:	e8 14 dc ff ff       	call   100f60 <write_serial>
  10334c:	83 c4 10             	add    $0x10,%esp
  10334f:	83 fb fc             	cmp    $0xfffffffc,%ebx
  103352:	75 dc                	jne    103330 <page_fault_handler+0x20>
  103354:	83 ec 0c             	sub    $0xc,%esp
  103357:	68 a4 30 14 00       	push   $0x1430a4
  10335c:	e8 1f dc ff ff       	call   100f80 <s_printf>
  103361:	c7 04 24 00 00 00 00 	movl   $0x0,(%esp)
  103368:	e8 43 cf ff ff       	call   1002b0 <vga_mute_log>
  10336d:	58                   	pop    %eax
  10336e:	5a                   	pop    %edx
  10336f:	8d 44 24 18          	lea    0x18(%esp),%eax
  103373:	50                   	push   %eax
  103374:	68 7a 2f 14 00       	push   $0x142f7a
  103379:	e8 a2 1a 00 00       	call   104e20 <panic>
  10337e:	83 c4 14             	add    $0x14,%esp
  103381:	5b                   	pop    %ebx
  103382:	5e                   	pop    %esi
  103383:	c3                   	ret
  103384:	2e 8d b4 26 00 00 00 	lea    %cs:0x0(%esi,%eiz,1),%esi
  10338b:	00 
  10338c:	8d 74 26 00          	lea    0x0(%esi,%eiz,1),%esi

00103390 <switch_page_directory>:
  103390:	8b 44 24 04          	mov    0x4(%esp),%eax
  103394:	a3 b0 e1 14 00       	mov    %eax,0x14e1b0
  103399:	8b 80 00 20 00 00    	mov    0x2000(%eax),%eax
  10339f:	0f 22 d8             	mov    %eax,%cr3
  1033a2:	0f 20 c0             	mov    %cr0,%eax
  1033a5:	0d 00 00 00 80       	or     $0x80000000,%eax
  1033aa:	0f 22 c0             	mov    %eax,%cr0
  1033ad:	c3                   	ret
  1033ae:	66 90                	xchg   %ax,%ax

001033b0 <clone_table>:
  1033b0:	56                   	push   %esi
  1033b1:	53                   	push   %ebx
  1033b2:	83 ec 0c             	sub    $0xc,%esp
  1033b5:	8b 5c 24 18          	mov    0x18(%esp),%ebx
  1033b9:	ff 74 24 1c          	push   0x1c(%esp)
  1033bd:	68 00 10 00 00       	push   $0x1000
  1033c2:	e8 89 2d 00 00       	call   106150 <kmalloc_ap>
  1033c7:	83 c4 0c             	add    $0xc,%esp
  1033ca:	68 00 10 00 00       	push   $0x1000
  1033cf:	89 c6                	mov    %eax,%esi
  1033d1:	6a 00                	push   $0x0
  1033d3:	50                   	push   %eax
  1033d4:	e8 27 29 00 00       	call   105d00 <memset>
  1033d9:	83 c4 10             	add    $0x10,%esp
  1033dc:	31 c0                	xor    %eax,%eax
  1033de:	66 90                	xchg   %ax,%ax
  1033e0:	8b 14 83             	mov    (%ebx,%eax,4),%edx
  1033e3:	85 d2                	test   %edx,%edx
  1033e5:	74 03                	je     1033ea <clone_table+0x3a>
  1033e7:	89 14 86             	mov    %edx,(%esi,%eax,4)
  1033ea:	83 c0 01             	add    $0x1,%eax
  1033ed:	3d 00 04 00 00       	cmp    $0x400,%eax
  1033f2:	75 ec                	jne    1033e0 <clone_table+0x30>
  1033f4:	83 c4 04             	add    $0x4,%esp
  1033f7:	89 f0                	mov    %esi,%eax
  1033f9:	5b                   	pop    %ebx
  1033fa:	5e                   	pop    %esi
  1033fb:	c3                   	ret
  1033fc:	8d 74 26 00          	lea    0x0(%esi,%eiz,1),%esi

00103400 <init_paging>:
  103400:	55                   	push   %ebp
  103401:	57                   	push   %edi
  103402:	56                   	push   %esi
  103403:	53                   	push   %ebx
  103404:	31 db                	xor    %ebx,%ebx
  103406:	83 ec 38             	sub    $0x38,%esp
  103409:	68 85 2f 14 00       	push   $0x142f85
  10340e:	e8 6d db ff ff       	call   100f80 <s_printf>
  103413:	c7 04 24 04 20 00 00 	movl   $0x2004,(%esp)
  10341a:	e8 71 2d 00 00       	call   106190 <kmalloc_a>
  10341f:	83 c4 0c             	add    $0xc,%esp
  103422:	68 04 20 00 00       	push   $0x2004
  103427:	6a 00                	push   $0x0
  103429:	50                   	push   %eax
  10342a:	a3 b4 e1 14 00       	mov    %eax,0x14e1b4
  10342f:	e8 cc 28 00 00       	call   105d00 <memset>
  103434:	8b 2d b4 e1 14 00    	mov    0x14e1b4,%ebp
  10343a:	83 c4 10             	add    $0x10,%esp
  10343d:	89 ad 00 20 00 00    	mov    %ebp,0x2000(%ebp)
  103443:	eb 19                	jmp    10345e <init_paging+0x5e>
  103445:	8d 76 00             	lea    0x0(%esi),%esi
  103448:	89 da                	mov    %ebx,%edx
  10344a:	81 c3 00 10 00 00    	add    $0x1000,%ebx
  103450:	83 ca 07             	or     $0x7,%edx
  103453:	89 14 b0             	mov    %edx,(%eax,%esi,4)
  103456:	81 fb 00 00 00 04    	cmp    $0x4000000,%ebx
  10345c:	74 70                	je     1034ce <init_paging+0xce>
  10345e:	89 da                	mov    %ebx,%edx
  103460:	89 de                	mov    %ebx,%esi
  103462:	c1 ea 16             	shr    $0x16,%edx
  103465:	c1 ee 0c             	shr    $0xc,%esi
  103468:	8d ba 00 04 00 00    	lea    0x400(%edx),%edi
  10346e:	81 e6 ff 03 00 00    	and    $0x3ff,%esi
  103474:	8b 44 bd 00          	mov    0x0(%ebp,%edi,4),%eax
  103478:	85 c0                	test   %eax,%eax
  10347a:	75 cc                	jne    103448 <init_paging+0x48>
  10347c:	89 54 24 0c          	mov    %edx,0xc(%esp)
  103480:	83 ec 08             	sub    $0x8,%esp
  103483:	8d 44 24 24          	lea    0x24(%esp),%eax
  103487:	50                   	push   %eax
  103488:	68 00 10 00 00       	push   $0x1000
  10348d:	e8 be 2c 00 00       	call   106150 <kmalloc_ap>
  103492:	83 c4 0c             	add    $0xc,%esp
  103495:	89 44 bd 00          	mov    %eax,0x0(%ebp,%edi,4)
  103499:	a1 b4 e1 14 00       	mov    0x14e1b4,%eax
  10349e:	68 00 10 00 00       	push   $0x1000
  1034a3:	6a 00                	push   $0x0
  1034a5:	ff 34 b8             	push   (%eax,%edi,4)
  1034a8:	e8 53 28 00 00       	call   105d00 <memset>
  1034ad:	8b 44 24 2c          	mov    0x2c(%esp),%eax
  1034b1:	8b 2d b4 e1 14 00    	mov    0x14e1b4,%ebp
  1034b7:	8b 54 24 1c          	mov    0x1c(%esp),%edx
  1034bb:	83 c4 10             	add    $0x10,%esp
  1034be:	83 c8 07             	or     $0x7,%eax
  1034c1:	89 44 95 00          	mov    %eax,0x0(%ebp,%edx,4)
  1034c5:	8b 44 bd 00          	mov    0x0(%ebp,%edi,4),%eax
  1034c9:	e9 7a ff ff ff       	jmp    103448 <init_paging+0x48>
  1034ce:	89 2d b0 e1 14 00    	mov    %ebp,0x14e1b0
  1034d4:	8b 85 00 20 00 00    	mov    0x2000(%ebp),%eax
  1034da:	0f 22 d8             	mov    %eax,%cr3
  1034dd:	0f 20 c0             	mov    %cr0,%eax
  1034e0:	0d 00 00 00 80       	or     $0x80000000,%eax
  1034e5:	0f 22 c0             	mov    %eax,%cr0
  1034e8:	83 ec 0c             	sub    $0xc,%esp
  1034eb:	68 f4 27 14 00       	push   $0x1427f4
  1034f0:	e8 8b da ff ff       	call   100f80 <s_printf>
  1034f5:	83 c4 3c             	add    $0x3c,%esp
  1034f8:	5b                   	pop    %ebx
  1034f9:	5e                   	pop    %esi
  1034fa:	5f                   	pop    %edi
  1034fb:	5d                   	pop    %ebp
  1034fc:	c3                   	ret
  1034fd:	8d 76 00             	lea    0x0(%esi),%esi

00103500 <paging_map_region>:
  103500:	55                   	push   %ebp
  103501:	57                   	push   %edi
  103502:	56                   	push   %esi
  103503:	53                   	push   %ebx
  103504:	83 ec 2c             	sub    $0x2c,%esp
  103507:	8b 15 b4 e1 14 00    	mov    0x14e1b4,%edx
  10350d:	8b 44 24 44          	mov    0x44(%esp),%eax
  103511:	85 d2                	test   %edx,%edx
  103513:	0f 84 f1 00 00 00    	je     10360a <paging_map_region+0x10a>
  103519:	8b 74 24 48          	mov    0x48(%esp),%esi
  10351d:	89 c3                	mov    %eax,%ebx
  10351f:	8b 4c 24 40          	mov    0x40(%esp),%ecx
  103523:	81 e3 00 f0 ff ff    	and    $0xfffff000,%ebx
  103529:	8d 84 30 ff 0f 00 00 	lea    0xfff(%eax,%esi,1),%eax
  103530:	81 e1 00 f0 ff ff    	and    $0xfffff000,%ecx
  103536:	25 00 f0 ff ff       	and    $0xfffff000,%eax
  10353b:	29 d8                	sub    %ebx,%eax
  10353d:	c1 e8 0c             	shr    $0xc,%eax
  103540:	0f 84 aa 00 00 00    	je     1035f0 <paging_map_region+0xf0>
  103546:	c1 e0 0c             	shl    $0xc,%eax
  103549:	29 d9                	sub    %ebx,%ecx
  10354b:	01 d8                	add    %ebx,%eax
  10354d:	89 4c 24 04          	mov    %ecx,0x4(%esp)
  103551:	89 04 24             	mov    %eax,(%esp)
  103554:	eb 1c                	jmp    103572 <paging_map_region+0x72>
  103556:	2e 8d b4 26 00 00 00 	lea    %cs:0x0(%esi,%eiz,1),%esi
  10355d:	00 
  10355e:	66 90                	xchg   %ax,%ax
  103560:	0b 7c 24 4c          	or     0x4c(%esp),%edi
  103564:	81 c3 00 10 00 00    	add    $0x1000,%ebx
  10356a:	89 3c b0             	mov    %edi,(%eax,%esi,4)
  10356d:	39 1c 24             	cmp    %ebx,(%esp)
  103570:	74 7e                	je     1035f0 <paging_map_region+0xf0>
  103572:	89 d9                	mov    %ebx,%ecx
  103574:	8b 44 24 04          	mov    0x4(%esp),%eax
  103578:	89 de                	mov    %ebx,%esi
  10357a:	c1 e9 16             	shr    $0x16,%ecx
  10357d:	c1 ee 0c             	shr    $0xc,%esi
  103580:	8d a9 00 04 00 00    	lea    0x400(%ecx),%ebp
  103586:	8d 3c 18             	lea    (%eax,%ebx,1),%edi
  103589:	81 e6 ff 03 00 00    	and    $0x3ff,%esi
  10358f:	8b 04 aa             	mov    (%edx,%ebp,4),%eax
  103592:	85 c0                	test   %eax,%eax
  103594:	75 ca                	jne    103560 <paging_map_region+0x60>
  103596:	89 4c 24 08          	mov    %ecx,0x8(%esp)
  10359a:	83 ec 08             	sub    $0x8,%esp
  10359d:	89 54 24 14          	mov    %edx,0x14(%esp)
  1035a1:	8d 44 24 24          	lea    0x24(%esp),%eax
  1035a5:	50                   	push   %eax
  1035a6:	68 00 10 00 00       	push   $0x1000
  1035ab:	e8 a0 2b 00 00       	call   106150 <kmalloc_ap>
  1035b0:	8b 54 24 1c          	mov    0x1c(%esp),%edx
  1035b4:	83 c4 0c             	add    $0xc,%esp
  1035b7:	89 04 aa             	mov    %eax,(%edx,%ebp,4)
  1035ba:	a1 b4 e1 14 00       	mov    0x14e1b4,%eax
  1035bf:	68 00 10 00 00       	push   $0x1000
  1035c4:	6a 00                	push   $0x0
  1035c6:	ff 34 a8             	push   (%eax,%ebp,4)
  1035c9:	e8 32 27 00 00       	call   105d00 <memset>
  1035ce:	8b 44 24 2c          	mov    0x2c(%esp),%eax
  1035d2:	8b 15 b4 e1 14 00    	mov    0x14e1b4,%edx
  1035d8:	8b 4c 24 18          	mov    0x18(%esp),%ecx
  1035dc:	83 c4 10             	add    $0x10,%esp
  1035df:	83 c8 07             	or     $0x7,%eax
  1035e2:	89 04 8a             	mov    %eax,(%edx,%ecx,4)
  1035e5:	8b 04 aa             	mov    (%edx,%ebp,4),%eax
  1035e8:	e9 73 ff ff ff       	jmp    103560 <paging_map_region+0x60>
  1035ed:	8d 76 00             	lea    0x0(%esi),%esi
  1035f0:	89 15 b0 e1 14 00    	mov    %edx,0x14e1b0
  1035f6:	8b 82 00 20 00 00    	mov    0x2000(%edx),%eax
  1035fc:	0f 22 d8             	mov    %eax,%cr3
  1035ff:	0f 20 c0             	mov    %cr0,%eax
  103602:	0d 00 00 00 80       	or     $0x80000000,%eax
  103607:	0f 22 c0             	mov    %eax,%cr0
  10360a:	83 c4 2c             	add    $0x2c,%esp
  10360d:	5b                   	pop    %ebx
  10360e:	5e                   	pop    %esi
  10360f:	5f                   	pop    %edi
  103610:	5d                   	pop    %ebp
  103611:	c3                   	ret
  103612:	66 90                	xchg   %ax,%ax
  103614:	66 90                	xchg   %ax,%ax
  103616:	66 90                	xchg   %ax,%ax
  103618:	66 90                	xchg   %ax,%ax
  10361a:	66 90                	xchg   %ax,%ax
  10361c:	66 90                	xchg   %ax,%ax
  10361e:	66 90                	xchg   %ax,%ax

00103620 <gfx_init_hal>:
  103620:	56                   	push   %esi
  103621:	53                   	push   %ebx
  103622:	83 ec 14             	sub    $0x14,%esp
  103625:	8b 44 24 20          	mov    0x20(%esp),%eax
  103629:	85 c0                	test   %eax,%eax
  10362b:	74 0c                	je     103639 <gfx_init_hal+0x19>
  10362d:	83 ec 0c             	sub    $0xc,%esp
  103630:	50                   	push   %eax
  103631:	e8 5a d0 ff ff       	call   100690 <init_vga_multiboot>
  103636:	83 c4 10             	add    $0x10,%esp
  103639:	a1 0c d0 14 00       	mov    0x14d00c,%eax
  10363e:	85 c0                	test   %eax,%eax
  103640:	0f 84 6a 01 00 00    	je     1037b0 <gfx_init_hal+0x190>
  103646:	a3 b8 e1 14 00       	mov    %eax,0x14e1b8
  10364b:	a1 08 d0 14 00       	mov    0x14d008,%eax
  103650:	83 ec 0c             	sub    $0xc,%esp
  103653:	a3 bc e1 14 00       	mov    %eax,0x14e1bc
  103658:	a1 04 d0 14 00       	mov    0x14d004,%eax
  10365d:	a3 c0 e1 14 00       	mov    %eax,0x14e1c0
  103662:	a1 00 d0 14 00       	mov    0x14d000,%eax
  103667:	a3 c4 e1 14 00       	mov    %eax,0x14e1c4
  10366c:	a1 10 d0 14 00       	mov    0x14d010,%eax
  103671:	a3 c8 e1 14 00       	mov    %eax,0x14e1c8
  103676:	68 9f 2f 14 00       	push   $0x142f9f
  10367b:	e8 00 d9 ff ff       	call   100f80 <s_printf>
  103680:	58                   	pop    %eax
  103681:	5a                   	pop    %edx
  103682:	8d 5c 24 08          	lea    0x8(%esp),%ebx
  103686:	53                   	push   %ebx
  103687:	ff 35 b8 e1 14 00    	push   0x14e1b8
  10368d:	e8 9e 24 00 00       	call   105b30 <int_to_str>
  103692:	89 1c 24             	mov    %ebx,(%esp)
  103695:	e8 e6 d8 ff ff       	call   100f80 <s_printf>
  10369a:	c7 04 24 b4 2f 14 00 	movl   $0x142fb4,(%esp)
  1036a1:	e8 da d8 ff ff       	call   100f80 <s_printf>
  1036a6:	59                   	pop    %ecx
  1036a7:	5e                   	pop    %esi
  1036a8:	53                   	push   %ebx
  1036a9:	ff 35 bc e1 14 00    	push   0x14e1bc
  1036af:	e8 7c 24 00 00       	call   105b30 <int_to_str>
  1036b4:	89 1c 24             	mov    %ebx,(%esp)
  1036b7:	e8 c4 d8 ff ff       	call   100f80 <s_printf>
  1036bc:	c7 04 24 ac 2f 14 00 	movl   $0x142fac,(%esp)
  1036c3:	e8 b8 d8 ff ff       	call   100f80 <s_printf>
  1036c8:	8b 35 c8 e1 14 00    	mov    0x14e1c8,%esi
  1036ce:	89 dc                	mov    %ebx,%esp
  1036d0:	bb 1c 00 00 00       	mov    $0x1c,%ebx
  1036d5:	8d 76 00             	lea    0x0(%esi),%esi
  1036d8:	89 d9                	mov    %ebx,%ecx
  1036da:	89 f0                	mov    %esi,%eax
  1036dc:	83 ec 0c             	sub    $0xc,%esp
  1036df:	83 eb 04             	sub    $0x4,%ebx
  1036e2:	d3 e8                	shr    %cl,%eax
  1036e4:	83 e0 0f             	and    $0xf,%eax
  1036e7:	0f be 80 69 2f 14 00 	movsbl 0x142f69(%eax),%eax
  1036ee:	50                   	push   %eax
  1036ef:	e8 6c d8 ff ff       	call   100f60 <write_serial>
  1036f4:	83 c4 10             	add    $0x10,%esp
  1036f7:	83 fb fc             	cmp    $0xfffffffc,%ebx
  1036fa:	75 dc                	jne    1036d8 <gfx_init_hal+0xb8>
  1036fc:	83 ec 0c             	sub    $0xc,%esp
  1036ff:	68 a4 30 14 00       	push   $0x1430a4
  103704:	e8 77 d8 ff ff       	call   100f80 <s_printf>
  103709:	8b 15 c8 e1 14 00    	mov    0x14e1c8,%edx
  10370f:	83 c4 10             	add    $0x10,%esp
  103712:	85 d2                	test   %edx,%edx
  103714:	74 09                	je     10371f <gfx_init_hal+0xff>
  103716:	83 3d c4 e1 14 00 17 	cmpl   $0x17,0x14e1c4
  10371d:	77 51                	ja     103770 <gfx_init_hal+0x150>
  10371f:	8b 1d b8 e1 14 00    	mov    0x14e1b8,%ebx
  103725:	0f af 1d bc e1 14 00 	imul   0x14e1bc,%ebx
  10372c:	83 ec 0c             	sub    $0xc,%esp
  10372f:	c1 e3 02             	shl    $0x2,%ebx
  103732:	53                   	push   %ebx
  103733:	e8 f8 26 00 00       	call   105e30 <kmalloc>
  103738:	83 c4 10             	add    $0x10,%esp
  10373b:	a3 cc e1 14 00       	mov    %eax,0x14e1cc
  103740:	85 c0                	test   %eax,%eax
  103742:	74 7c                	je     1037c0 <gfx_init_hal+0x1a0>
  103744:	c7 05 d4 e1 14 00 01 	movl   $0x1,0x14e1d4
  10374b:	00 00 00 
  10374e:	83 ec 04             	sub    $0x4,%esp
  103751:	53                   	push   %ebx
  103752:	6a 00                	push   $0x0
  103754:	50                   	push   %eax
  103755:	e8 a6 25 00 00       	call   105d00 <memset>
  10375a:	c7 04 24 ca 2f 14 00 	movl   $0x142fca,(%esp)
  103761:	e8 1a d8 ff ff       	call   100f80 <s_printf>
  103766:	83 c4 10             	add    $0x10,%esp
  103769:	83 c4 14             	add    $0x14,%esp
  10376c:	5b                   	pop    %ebx
  10376d:	5e                   	pop    %esi
  10376e:	c3                   	ret
  10376f:	90                   	nop
  103770:	a1 c0 e1 14 00       	mov    0x14e1c0,%eax
  103775:	0f af 05 bc e1 14 00 	imul   0x14e1bc,%eax
  10377c:	6a 03                	push   $0x3
  10377e:	89 c1                	mov    %eax,%ecx
  103780:	81 e1 00 f0 ff ff    	and    $0xfffff000,%ecx
  103786:	81 c1 00 10 00 00    	add    $0x1000,%ecx
  10378c:	a9 ff 0f 00 00       	test   $0xfff,%eax
  103791:	0f 45 c1             	cmovne %ecx,%eax
  103794:	50                   	push   %eax
  103795:	52                   	push   %edx
  103796:	52                   	push   %edx
  103797:	e8 64 fd ff ff       	call   103500 <paging_map_region>
  10379c:	c7 04 24 b6 2f 14 00 	movl   $0x142fb6,(%esp)
  1037a3:	e8 d8 d7 ff ff       	call   100f80 <s_printf>
  1037a8:	83 c4 10             	add    $0x10,%esp
  1037ab:	e9 6f ff ff ff       	jmp    10371f <gfx_init_hal+0xff>
  1037b0:	e8 6b ce ff ff       	call   100620 <init_vga_graphics>
  1037b5:	a1 0c d0 14 00       	mov    0x14d00c,%eax
  1037ba:	e9 87 fe ff ff       	jmp    103646 <gfx_init_hal+0x26>
  1037bf:	90                   	nop
  1037c0:	c7 05 d4 e1 14 00 00 	movl   $0x0,0x14e1d4
  1037c7:	00 00 00 
  1037ca:	83 ec 0c             	sub    $0xc,%esp
  1037cd:	68 20 28 14 00       	push   $0x142820
  1037d2:	e8 a9 d7 ff ff       	call   100f80 <s_printf>
  1037d7:	83 c4 10             	add    $0x10,%esp
  1037da:	83 c4 14             	add    $0x14,%esp
  1037dd:	5b                   	pop    %ebx
  1037de:	5e                   	pop    %esi
  1037df:	c3                   	ret

001037e0 <gfx_swap_buffers>:
  1037e0:	8b 0d d4 e1 14 00    	mov    0x14e1d4,%ecx
  1037e6:	85 c9                	test   %ecx,%ecx
  1037e8:	74 2e                	je     103818 <gfx_swap_buffers+0x38>
  1037ea:	55                   	push   %ebp
  1037eb:	57                   	push   %edi
  1037ec:	56                   	push   %esi
  1037ed:	53                   	push   %ebx
  1037ee:	83 ec 0c             	sub    $0xc,%esp
  1037f1:	8b 35 c8 e1 14 00    	mov    0x14e1c8,%esi
  1037f7:	85 f6                	test   %esi,%esi
  1037f9:	74 0f                	je     10380a <gfx_swap_buffers+0x2a>
  1037fb:	a1 c4 e1 14 00       	mov    0x14e1c4,%eax
  103800:	83 f8 18             	cmp    $0x18,%eax
  103803:	74 7b                	je     103880 <gfx_swap_buffers+0xa0>
  103805:	83 f8 20             	cmp    $0x20,%eax
  103808:	74 16                	je     103820 <gfx_swap_buffers+0x40>
  10380a:	83 c4 0c             	add    $0xc,%esp
  10380d:	5b                   	pop    %ebx
  10380e:	5e                   	pop    %esi
  10380f:	5f                   	pop    %edi
  103810:	5d                   	pop    %ebp
  103811:	c3                   	ret
  103812:	8d b6 00 00 00 00    	lea    0x0(%esi),%esi
  103818:	c3                   	ret
  103819:	8d b4 26 00 00 00 00 	lea    0x0(%esi,%eiz,1),%esi
  103820:	a1 b8 e1 14 00       	mov    0x14e1b8,%eax
  103825:	8b 1d cc e1 14 00    	mov    0x14e1cc,%ebx
  10382b:	8b 15 bc e1 14 00    	mov    0x14e1bc,%edx
  103831:	8d 2c 85 00 00 00 00 	lea    0x0(,%eax,4),%ebp
  103838:	39 2d c0 e1 14 00    	cmp    %ebp,0x14e1c0
  10383e:	0f 84 a6 00 00 00    	je     1038ea <gfx_swap_buffers+0x10a>
  103844:	85 d2                	test   %edx,%edx
  103846:	74 c2                	je     10380a <gfx_swap_buffers+0x2a>
  103848:	31 ff                	xor    %edi,%edi
  10384a:	8d b6 00 00 00 00    	lea    0x0(%esi),%esi
  103850:	83 ec 04             	sub    $0x4,%esp
  103853:	83 c7 01             	add    $0x1,%edi
  103856:	55                   	push   %ebp
  103857:	53                   	push   %ebx
  103858:	01 eb                	add    %ebp,%ebx
  10385a:	56                   	push   %esi
  10385b:	e8 f0 24 00 00       	call   105d50 <memcpy>
  103860:	03 35 c0 e1 14 00    	add    0x14e1c0,%esi
  103866:	83 c4 10             	add    $0x10,%esp
  103869:	3b 3d bc e1 14 00    	cmp    0x14e1bc,%edi
  10386f:	72 df                	jb     103850 <gfx_swap_buffers+0x70>
  103871:	83 c4 0c             	add    $0xc,%esp
  103874:	5b                   	pop    %ebx
  103875:	5e                   	pop    %esi
  103876:	5f                   	pop    %edi
  103877:	5d                   	pop    %ebp
  103878:	c3                   	ret
  103879:	8d b4 26 00 00 00 00 	lea    0x0(%esi,%eiz,1),%esi
  103880:	8b 15 bc e1 14 00    	mov    0x14e1bc,%edx
  103886:	8b 1d cc e1 14 00    	mov    0x14e1cc,%ebx
  10388c:	31 ff                	xor    %edi,%edi
  10388e:	85 d2                	test   %edx,%edx
  103890:	0f 84 74 ff ff ff    	je     10380a <gfx_swap_buffers+0x2a>
  103896:	2e 8d b4 26 00 00 00 	lea    %cs:0x0(%esi,%eiz,1),%esi
  10389d:	00 
  10389e:	66 90                	xchg   %ax,%ax
  1038a0:	a1 b8 e1 14 00       	mov    0x14e1b8,%eax
  1038a5:	89 f2                	mov    %esi,%edx
  1038a7:	31 c9                	xor    %ecx,%ecx
  1038a9:	85 c0                	test   %eax,%eax
  1038ab:	74 24                	je     1038d1 <gfx_swap_buffers+0xf1>
  1038ad:	8d 76 00             	lea    0x0(%esi),%esi
  1038b0:	8b 04 8b             	mov    (%ebx,%ecx,4),%eax
  1038b3:	83 c1 01             	add    $0x1,%ecx
  1038b6:	83 c2 03             	add    $0x3,%edx
  1038b9:	88 42 fd             	mov    %al,-0x3(%edx)
  1038bc:	88 62 fe             	mov    %ah,-0x2(%edx)
  1038bf:	c1 e8 10             	shr    $0x10,%eax
  1038c2:	88 42 ff             	mov    %al,-0x1(%edx)
  1038c5:	a1 b8 e1 14 00       	mov    0x14e1b8,%eax
  1038ca:	39 c1                	cmp    %eax,%ecx
  1038cc:	72 e2                	jb     1038b0 <gfx_swap_buffers+0xd0>
  1038ce:	8d 1c 83             	lea    (%ebx,%eax,4),%ebx
  1038d1:	03 35 c0 e1 14 00    	add    0x14e1c0,%esi
  1038d7:	83 c7 01             	add    $0x1,%edi
  1038da:	3b 3d bc e1 14 00    	cmp    0x14e1bc,%edi
  1038e0:	72 be                	jb     1038a0 <gfx_swap_buffers+0xc0>
  1038e2:	83 c4 0c             	add    $0xc,%esp
  1038e5:	5b                   	pop    %ebx
  1038e6:	5e                   	pop    %esi
  1038e7:	5f                   	pop    %edi
  1038e8:	5d                   	pop    %ebp
  1038e9:	c3                   	ret
  1038ea:	0f af c2             	imul   %edx,%eax
  1038ed:	83 ec 04             	sub    $0x4,%esp
  1038f0:	c1 e0 02             	shl    $0x2,%eax
  1038f3:	50                   	push   %eax
  1038f4:	53                   	push   %ebx
  1038f5:	56                   	push   %esi
  1038f6:	e8 55 24 00 00       	call   105d50 <memcpy>
  1038fb:	83 c4 10             	add    $0x10,%esp
  1038fe:	e9 07 ff ff ff       	jmp    10380a <gfx_swap_buffers+0x2a>
  103903:	2e 8d b4 26 00 00 00 	lea    %cs:0x0(%esi,%eiz,1),%esi
  10390a:	00 
  10390b:	2e 8d 74 26 00       	lea    %cs:0x0(%esi,%eiz,1),%esi

00103910 <gfx_get_blur_buffer>:
  103910:	53                   	push   %ebx
  103911:	83 ec 08             	sub    $0x8,%esp
  103914:	8b 1d d0 e1 14 00    	mov    0x14e1d0,%ebx
  10391a:	85 db                	test   %ebx,%ebx
  10391c:	74 0a                	je     103928 <gfx_get_blur_buffer+0x18>
  10391e:	83 c4 08             	add    $0x8,%esp
  103921:	89 d8                	mov    %ebx,%eax
  103923:	5b                   	pop    %ebx
  103924:	c3                   	ret
  103925:	8d 76 00             	lea    0x0(%esi),%esi
  103928:	a1 b8 e1 14 00       	mov    0x14e1b8,%eax
  10392d:	85 c0                	test   %eax,%eax
  10392f:	74 ed                	je     10391e <gfx_get_blur_buffer+0xe>
  103931:	0f af 05 bc e1 14 00 	imul   0x14e1bc,%eax
  103938:	83 ec 0c             	sub    $0xc,%esp
  10393b:	c1 e0 02             	shl    $0x2,%eax
  10393e:	50                   	push   %eax
  10393f:	e8 ec 24 00 00       	call   105e30 <kmalloc>
  103944:	83 c4 10             	add    $0x10,%esp
  103947:	a3 d0 e1 14 00       	mov    %eax,0x14e1d0
  10394c:	85 c0                	test   %eax,%eax
  10394e:	74 ce                	je     10391e <gfx_get_blur_buffer+0xe>
  103950:	8b 15 b8 e1 14 00    	mov    0x14e1b8,%edx
  103956:	0f af 15 bc e1 14 00 	imul   0x14e1bc,%edx
  10395d:	83 ec 04             	sub    $0x4,%esp
  103960:	c1 e2 02             	shl    $0x2,%edx
  103963:	52                   	push   %edx
  103964:	6a 00                	push   $0x0
  103966:	50                   	push   %eax
  103967:	e8 94 23 00 00       	call   105d00 <memset>
  10396c:	8b 1d d0 e1 14 00    	mov    0x14e1d0,%ebx
  103972:	83 c4 10             	add    $0x10,%esp
  103975:	eb a7                	jmp    10391e <gfx_get_blur_buffer+0xe>
  103977:	2e 8d b4 26 00 00 00 	lea    %cs:0x0(%esi,%eiz,1),%esi
  10397e:	00 
  10397f:	90                   	nop

00103980 <gfx_put_pixel_aa>:
  103980:	57                   	push   %edi
  103981:	56                   	push   %esi
  103982:	53                   	push   %ebx
  103983:	8b 44 24 10          	mov    0x10(%esp),%eax
  103987:	8b 4c 24 14          	mov    0x14(%esp),%ecx
  10398b:	8b 5c 24 1c          	mov    0x1c(%esp),%ebx
  10398f:	85 c0                	test   %eax,%eax
  103991:	0f 88 8e 00 00 00    	js     103a25 <gfx_put_pixel_aa+0xa5>
  103997:	8b 15 b8 e1 14 00    	mov    0x14e1b8,%edx
  10399d:	39 d0                	cmp    %edx,%eax
  10399f:	0f 83 80 00 00 00    	jae    103a25 <gfx_put_pixel_aa+0xa5>
  1039a5:	85 c9                	test   %ecx,%ecx
  1039a7:	78 7c                	js     103a25 <gfx_put_pixel_aa+0xa5>
  1039a9:	3b 0d bc e1 14 00    	cmp    0x14e1bc,%ecx
  1039af:	73 74                	jae    103a25 <gfx_put_pixel_aa+0xa5>
  1039b1:	0f af d1             	imul   %ecx,%edx
  1039b4:	01 c2                	add    %eax,%edx
  1039b6:	a1 cc e1 14 00       	mov    0x14e1cc,%eax
  1039bb:	8d 0c 90             	lea    (%eax,%edx,4),%ecx
  1039be:	8b 54 24 18          	mov    0x18(%esp),%edx
  1039c2:	0f b6 c3             	movzbl %bl,%eax
  1039c5:	c1 ea 18             	shr    $0x18,%edx
  1039c8:	0f af d0             	imul   %eax,%edx
  1039cb:	8b 01                	mov    (%ecx),%eax
  1039cd:	c1 ea 08             	shr    $0x8,%edx
  1039d0:	74 51                	je     103a23 <gfx_put_pixel_aa+0xa3>
  1039d2:	89 c3                	mov    %eax,%ebx
  1039d4:	be 00 01 00 00       	mov    $0x100,%esi
  1039d9:	25 00 ff 00 00       	and    $0xff00,%eax
  1039de:	8b 7c 24 18          	mov    0x18(%esp),%edi
  1039e2:	29 d6                	sub    %edx,%esi
  1039e4:	81 e3 ff 00 ff 00    	and    $0xff00ff,%ebx
  1039ea:	0f af de             	imul   %esi,%ebx
  1039ed:	81 e7 ff 00 ff 00    	and    $0xff00ff,%edi
  1039f3:	0f af f0             	imul   %eax,%esi
  1039f6:	8b 44 24 18          	mov    0x18(%esp),%eax
  1039fa:	0f af fa             	imul   %edx,%edi
  1039fd:	25 00 ff 00 00       	and    $0xff00,%eax
  103a02:	0f af c2             	imul   %edx,%eax
  103a05:	01 fb                	add    %edi,%ebx
  103a07:	c1 eb 08             	shr    $0x8,%ebx
  103a0a:	01 f0                	add    %esi,%eax
  103a0c:	81 e3 ff 00 ff 00    	and    $0xff00ff,%ebx
  103a12:	c1 e8 08             	shr    $0x8,%eax
  103a15:	25 00 ff 00 00       	and    $0xff00,%eax
  103a1a:	09 c3                	or     %eax,%ebx
  103a1c:	89 d8                	mov    %ebx,%eax
  103a1e:	0d 00 00 00 ff       	or     $0xff000000,%eax
  103a23:	89 01                	mov    %eax,(%ecx)
  103a25:	5b                   	pop    %ebx
  103a26:	5e                   	pop    %esi
  103a27:	5f                   	pop    %edi
  103a28:	c3                   	ret
  103a29:	8d b4 26 00 00 00 00 	lea    0x0(%esi,%eiz,1),%esi

00103a30 <gfx_put_pixel>:
  103a30:	57                   	push   %edi
  103a31:	a1 b8 e1 14 00       	mov    0x14e1b8,%eax
  103a36:	56                   	push   %esi
  103a37:	53                   	push   %ebx
  103a38:	8b 54 24 10          	mov    0x10(%esp),%edx
  103a3c:	39 c2                	cmp    %eax,%edx
  103a3e:	0f 83 99 00 00 00    	jae    103add <gfx_put_pixel+0xad>
  103a44:	8b 3d bc e1 14 00    	mov    0x14e1bc,%edi
  103a4a:	39 7c 24 14          	cmp    %edi,0x14(%esp)
  103a4e:	0f 83 89 00 00 00    	jae    103add <gfx_put_pixel+0xad>
  103a54:	8b 1d d4 e1 14 00    	mov    0x14e1d4,%ebx
  103a5a:	85 db                	test   %ebx,%ebx
  103a5c:	0f 84 86 00 00 00    	je     103ae8 <gfx_put_pixel+0xb8>
  103a62:	0f af 44 24 14       	imul   0x14(%esp),%eax
  103a67:	8b 5c 24 18          	mov    0x18(%esp),%ebx
  103a6b:	c1 eb 18             	shr    $0x18,%ebx
  103a6e:	01 d0                	add    %edx,%eax
  103a70:	8b 15 cc e1 14 00    	mov    0x14e1cc,%edx
  103a76:	8d 0c 82             	lea    (%edx,%eax,4),%ecx
  103a79:	81 fb ff 00 00 00    	cmp    $0xff,%ebx
  103a7f:	0f 84 8b 00 00 00    	je     103b10 <gfx_put_pixel+0xe0>
  103a85:	85 db                	test   %ebx,%ebx
  103a87:	74 54                	je     103add <gfx_put_pixel+0xad>
  103a89:	8b 11                	mov    (%ecx),%edx
  103a8b:	be ff 00 00 00       	mov    $0xff,%esi
  103a90:	8b 7c 24 18          	mov    0x18(%esp),%edi
  103a94:	29 de                	sub    %ebx,%esi
  103a96:	89 d0                	mov    %edx,%eax
  103a98:	81 e2 00 ff 00 00    	and    $0xff00,%edx
  103a9e:	81 e7 ff 00 ff 00    	and    $0xff00ff,%edi
  103aa4:	25 ff 00 ff 00       	and    $0xff00ff,%eax
  103aa9:	0f af d6             	imul   %esi,%edx
  103aac:	0f af c6             	imul   %esi,%eax
  103aaf:	8b 74 24 18          	mov    0x18(%esp),%esi
  103ab3:	0f af fb             	imul   %ebx,%edi
  103ab6:	81 e6 00 ff 00 00    	and    $0xff00,%esi
  103abc:	0f af de             	imul   %esi,%ebx
  103abf:	01 f8                	add    %edi,%eax
  103ac1:	c1 e8 08             	shr    $0x8,%eax
  103ac4:	01 da                	add    %ebx,%edx
  103ac6:	25 ff 00 ff 00       	and    $0xff00ff,%eax
  103acb:	c1 ea 08             	shr    $0x8,%edx
  103ace:	81 e2 00 ff 00 00    	and    $0xff00,%edx
  103ad4:	09 d0                	or     %edx,%eax
  103ad6:	0d 00 00 00 ff       	or     $0xff000000,%eax
  103adb:	89 01                	mov    %eax,(%ecx)
  103add:	5b                   	pop    %ebx
  103ade:	5e                   	pop    %esi
  103adf:	5f                   	pop    %edi
  103ae0:	c3                   	ret
  103ae1:	8d b4 26 00 00 00 00 	lea    0x0(%esi,%eiz,1),%esi
  103ae8:	83 3d c4 e1 14 00 20 	cmpl   $0x20,0x14e1c4
  103aef:	75 ec                	jne    103add <gfx_put_pixel+0xad>
  103af1:	8b 0d c8 e1 14 00    	mov    0x14e1c8,%ecx
  103af7:	8b 44 24 14          	mov    0x14(%esp),%eax
  103afb:	0f af 05 c0 e1 14 00 	imul   0x14e1c0,%eax
  103b02:	8d 14 91             	lea    (%ecx,%edx,4),%edx
  103b05:	8b 4c 24 18          	mov    0x18(%esp),%ecx
  103b09:	89 0c 02             	mov    %ecx,(%edx,%eax,1)
  103b0c:	eb cf                	jmp    103add <gfx_put_pixel+0xad>
  103b0e:	66 90                	xchg   %ax,%ax
  103b10:	8b 44 24 18          	mov    0x18(%esp),%eax
  103b14:	89 01                	mov    %eax,(%ecx)
  103b16:	eb c5                	jmp    103add <gfx_put_pixel+0xad>
  103b18:	2e 8d b4 26 00 00 00 	lea    %cs:0x0(%esi,%eiz,1),%esi
  103b1f:	00 

00103b20 <gfx_fill_rect>:
  103b20:	55                   	push   %ebp
  103b21:	57                   	push   %edi
  103b22:	56                   	push   %esi
  103b23:	53                   	push   %ebx
  103b24:	83 ec 08             	sub    $0x8,%esp
  103b27:	a1 b8 e1 14 00       	mov    0x14e1b8,%eax
  103b2c:	8b 5c 24 24          	mov    0x24(%esp),%ebx
  103b30:	8b 7c 24 2c          	mov    0x2c(%esp),%edi
  103b34:	3b 44 24 1c          	cmp    0x1c(%esp),%eax
  103b38:	0f 8e 8d 01 00 00    	jle    103ccb <gfx_fill_rect+0x1ab>
  103b3e:	8b 15 bc e1 14 00    	mov    0x14e1bc,%edx
  103b44:	3b 54 24 20          	cmp    0x20(%esp),%edx
  103b48:	0f 8e 7d 01 00 00    	jle    103ccb <gfx_fill_rect+0x1ab>
  103b4e:	8b 4c 24 1c          	mov    0x1c(%esp),%ecx
  103b52:	01 d9                	add    %ebx,%ecx
  103b54:	85 c9                	test   %ecx,%ecx
  103b56:	0f 8e 6f 01 00 00    	jle    103ccb <gfx_fill_rect+0x1ab>
  103b5c:	8b 6c 24 20          	mov    0x20(%esp),%ebp
  103b60:	03 6c 24 28          	add    0x28(%esp),%ebp
  103b64:	85 ed                	test   %ebp,%ebp
  103b66:	0f 8e 5f 01 00 00    	jle    103ccb <gfx_fill_rect+0x1ab>
  103b6c:	8b 74 24 1c          	mov    0x1c(%esp),%esi
  103b70:	85 f6                	test   %esi,%esi
  103b72:	0f 88 78 01 00 00    	js     103cf0 <gfx_fill_rect+0x1d0>
  103b78:	8b 74 24 20          	mov    0x20(%esp),%esi
  103b7c:	85 f6                	test   %esi,%esi
  103b7e:	0f 88 54 01 00 00    	js     103cd8 <gfx_fill_rect+0x1b8>
  103b84:	89 c6                	mov    %eax,%esi
  103b86:	2b 74 24 1c          	sub    0x1c(%esp),%esi
  103b8a:	39 c8                	cmp    %ecx,%eax
  103b8c:	89 d1                	mov    %edx,%ecx
  103b8e:	0f 4c de             	cmovl  %esi,%ebx
  103b91:	2b 4c 24 20          	sub    0x20(%esp),%ecx
  103b95:	39 ea                	cmp    %ebp,%edx
  103b97:	0f 4d 4c 24 28       	cmovge 0x28(%esp),%ecx
  103b9c:	89 4c 24 28          	mov    %ecx,0x28(%esp)
  103ba0:	85 db                	test   %ebx,%ebx
  103ba2:	0f 8e 23 01 00 00    	jle    103ccb <gfx_fill_rect+0x1ab>
  103ba8:	85 c9                	test   %ecx,%ecx
  103baa:	0f 8e 1b 01 00 00    	jle    103ccb <gfx_fill_rect+0x1ab>
  103bb0:	8b 15 d4 e1 14 00    	mov    0x14e1d4,%edx
  103bb6:	85 d2                	test   %edx,%edx
  103bb8:	0f 84 ca 00 00 00    	je     103c88 <gfx_fill_rect+0x168>
  103bbe:	89 fe                	mov    %edi,%esi
  103bc0:	c1 ee 18             	shr    $0x18,%esi
  103bc3:	81 fe ff 00 00 00    	cmp    $0xff,%esi
  103bc9:	0f 84 30 01 00 00    	je     103cff <gfx_fill_rect+0x1df>
  103bcf:	85 f6                	test   %esi,%esi
  103bd1:	0f 84 f4 00 00 00    	je     103ccb <gfx_fill_rect+0x1ab>
  103bd7:	89 f9                	mov    %edi,%ecx
  103bd9:	81 e7 00 ff 00 00    	and    $0xff00,%edi
  103bdf:	8b 15 cc e1 14 00    	mov    0x14e1cc,%edx
  103be5:	89 5c 24 24          	mov    %ebx,0x24(%esp)
  103be9:	0f af fe             	imul   %esi,%edi
  103bec:	81 e1 ff 00 ff 00    	and    $0xff00ff,%ecx
  103bf2:	0f af ce             	imul   %esi,%ecx
  103bf5:	89 54 24 04          	mov    %edx,0x4(%esp)
  103bf9:	89 fa                	mov    %edi,%edx
  103bfb:	bf ff 00 00 00       	mov    $0xff,%edi
  103c00:	89 cd                	mov    %ecx,%ebp
  103c02:	29 f7                	sub    %esi,%edi
  103c04:	31 c9                	xor    %ecx,%ecx
  103c06:	2e 8d b4 26 00 00 00 	lea    %cs:0x0(%esi,%eiz,1),%esi
  103c0d:	00 
  103c0e:	66 90                	xchg   %ax,%ax
  103c10:	8b 5c 24 20          	mov    0x20(%esp),%ebx
  103c14:	89 0c 24             	mov    %ecx,(%esp)
  103c17:	01 cb                	add    %ecx,%ebx
  103c19:	0f af d8             	imul   %eax,%ebx
  103c1c:	8b 44 24 04          	mov    0x4(%esp),%eax
  103c20:	03 5c 24 1c          	add    0x1c(%esp),%ebx
  103c24:	8d 34 98             	lea    (%eax,%ebx,4),%esi
  103c27:	31 db                	xor    %ebx,%ebx
  103c29:	8d b4 26 00 00 00 00 	lea    0x0(%esi,%eiz,1),%esi
  103c30:	8b 0c 9e             	mov    (%esi,%ebx,4),%ecx
  103c33:	89 c8                	mov    %ecx,%eax
  103c35:	81 e1 00 ff 00 00    	and    $0xff00,%ecx
